(dp0
S'tri'
p1
(dp2
S'speedup_best'
p3
(lp4
F1.3715953307392994
aF1.1167268351383877
aF1.076043068640646
aF1.2461538461538462
aF1.4147727272727273
aF1.1078799249530957
aF1.0853788687299892
aF1.13759373981089
aF1.0553154710458081
aF1.180232558139535
aF1.044300518134715
aF0.6971018209797384
aF0.9155381325730577
aF0.5141552511415525
aF0.7812296681847756
aF0.5911949685534592
aF0.5897007654836466
aF0.966707768187423
aF0.5317283163265306
aF0.4204569996976373
asS'a_unique'
p5
(lp6
I3
aI6
aI6
aI2
aI2
aI10
aI20
aI20
aI28
aI28
aI20
aI40
aI40
aI96
aI96
aI39
aI78
aI78
aI63
aI100
asS'xsmm_upstream_best'
p7
(lp8
F1.41
aF0.928
aF1.599
aF0.891
aF0.996
aF2.362
aF2.034
aF3.489
aF2.442
aF3.248
aF4.031
aF2.718
aF5.138
aF3.378
aF4.803
aF4.23
aF4.237
aF9.408
aF6.67
aF9.734
asS'a_cols'
p9
(lp10
I3
aI6
aI6
aI6
aI3
aI6
aI9
aI9
aI12
aI6
aI10
aI12
aI12
aI20
aI10
aI15
aI15
aI15
aI21
aI28
asS'density'
p11
(lp12
F1.0
aF1.0
aF0.6666666666666666
aF0.6666666666666666
aF0.6666666666666666
aF1.0
aF1.0
aF0.6666666666666666
aF0.8888888888888888
aF0.8888888888888888
aF1.0
aF1.0
aF0.6666666666666666
aF0.96
aF0.96
aF1.0
aF1.0
aF0.6666666666666666
aF1.0
aF1.0
asS'a_size'
p13
(lp14
I18
aI18
aI36
aI18
aI18
aI54
aI54
aI108
aI72
aI72
aI120
aI120
aI240
aI200
aI200
aI225
aI225
aI450
aI378
aI588
asS'a_nonzero'
p15
(lp16
I18
aI18
aI24
aI12
aI12
aI54
aI54
aI72
aI64
aI64
aI120
aI120
aI160
aI192
aI192
aI225
aI225
aI300
aI378
aI588
asS'xsmm_local_best'
p17
(lp18
F1.028
aF0.831
aF1.486
aF0.715
aF0.704
aF2.132
aF1.874
aF3.067
aF2.314
aF2.752
aF3.86
aF3.899
aF5.612
aF6.57
aF6.148
aF7.155
aF7.185
aF9.732
aF12.544
aF23.151
asS'xsmm_upstream_avg'
p19
(lp20
F1.4984791666666661
aF0.9366875000000001
aF1.6239999999999999
aF0.8984374999999999
aF1.0031458333333332
aF2.4199166666666674
aF2.047791666666667
aF3.5177083333333337
aF2.460854166666666
aF3.4115000000000015
aF4.054104166666668
aF2.7452500000000004
aF5.170333333333334
aF3.4585624999999998
aF4.9098958333333345
aF4.270000000000001
aF4.28375
aF9.487645833333337
aF6.860458333333334
aF10.2149375
asS'a_rows'
p21
(lp22
I6
aI3
aI6
aI3
aI6
aI9
aI6
aI12
aI6
aI12
aI12
aI10
aI20
aI10
aI20
aI15
aI15
aI30
aI18
aI21
asS'mat_file'
p23
(lp24
S'example_mats_med/tri/p1/williams-shunn/m0.txt'
p25
aS'example_mats_med/tri/p1/williams-shunn/m3.txt'
p26
aS'example_mats_med/tri/p1/williams-shunn/m6.txt'
p27
aS'example_mats_med/tri/p1/williams-shunn/m132.txt'
p28
aS'example_mats_med/tri/p1/williams-shunn/m460.txt'
p29
aS'example_mats_med/tri/p2/williams-shunn/m0.txt'
p30
aS'example_mats_med/tri/p2/williams-shunn/m3.txt'
p31
aS'example_mats_med/tri/p2/williams-shunn/m6.txt'
p32
aS'example_mats_med/tri/p2/williams-shunn/m132.txt'
p33
aS'example_mats_med/tri/p2/williams-shunn/m460.txt'
p34
aS'example_mats_med/tri/p3/williams-shunn/m0.txt'
p35
aS'example_mats_med/tri/p3/williams-shunn/m3.txt'
p36
aS'example_mats_med/tri/p3/williams-shunn/m6.txt'
p37
aS'example_mats_med/tri/p3/williams-shunn/m132.txt'
p38
aS'example_mats_med/tri/p3/williams-shunn/m460.txt'
p39
aS'example_mats_med/tri/p4/williams-shunn/m0.txt'
p40
aS'example_mats_med/tri/p4/williams-shunn/m3.txt'
p41
aS'example_mats_med/tri/p4/williams-shunn/m6.txt'
p42
aS'example_mats_med/tri/p5/williams-shunn/m0.txt'
p43
aS'example_mats_med/tri/p6/williams-shunn/m0.txt'
p44
asS'speedup_avg'
p45
(lp46
F1.00274641014917
aF0.9980908828556839
aF1.0002823046323621
aF1.0107342911383503
aF0.9825130590923933
aF1.0050096472481551
aF1.0207697260473134
aF1.0252471279722144
aF1.0419070300785034
aF1.0248655956039288
aF1.0241516146688565
aF0.7013924374041899
aF0.8773810365551863
aF0.522732639971283
aF0.7733337270961304
aF0.5936498925428816
aF0.5938895403580319
aF0.9615654230273859
aF0.539571327684773
aF0.4384308956538458
asS'xsmm_local_avg'
p47
(lp48
F1.494375
aF0.9384791666666669
aF1.6235416666666669
aF0.8888958333333333
aF1.0209999999999997
aF2.4078541666666666
aF2.0061250000000004
aF3.431083333333335
aF2.361875000000001
aF3.3287291666666654
aF3.958499999999999
aF3.9140000000000015
aF5.892916666666667
aF6.6163125
aF6.349000000000004
aF7.192791666666668
aF7.213041666666669
aF9.866874999999999
aF12.714645833333334
aF23.298854166666658
assS'quad'
p49
(dp50
g3
(lp51
F1.034116331096197
aF1.0024896265560166
aF1.0349127182044888
aF1.0151515151515151
aF1.088167053364269
aF1.0366027007818053
aF1.0023201856148494
aF1.000219154065308
aF1.006472491909385
aF1.0191366266132622
aF1.051837888784166
aF1.0050096339113679
aF1.0026286966046
aF1.0113858165256995
aF1.0441410693970423
aF0.9987515605493134
aF1.0036924413553432
aF0.996917005796029
aF0.9981481481481481
aF0.9975438204756056
aF1.0039175257731958
aF0.9930885529157667
aF0.9931279911645602
aF0.9995887030435976
aF0.9988933156263834
aF0.9935647425897035
aF0.989080614720949
aF0.9974789253919483
aF1.0004073527165334
aF1.0009031092762224
aF1.000542225837061
aF0.9983724399837244
aF1.0015801532748676
aF0.742529309054627
aF1.0016718106995885
aF1.01025390625
aF1.0163457022076092
aF1.0036514522821576
aF1.1674378530172003
aF1.48706043845129
aF0.9809139784946236
aF0.9963024588648549
aF1.0015382924953302
aF1.149473152880308
aF1.4077073657544235
aF0.9961982348947725
aF1.0103464706282759
aF0.9954429165334188
aF1.3494042002238362
aF1.5117273585895687
aF0.997483272972807
aF1.0083198051948052
aF1.0068800841798535
aF1.2826495262740516
aF1.4651186423454092
asg5
(lp52
I2
aI2
aI4
aI2
aI2
aI1
aI3
aI6
aI6
aI6
aI3
aI3
aI6
aI8
aI8
aI1
aI4
aI6
aI14
aI14
aI4
aI4
aI8
aI16
aI16
aI1
aI4
aI8
aI22
aI22
aI5
aI5
aI10
aI24
aI24
aI1
aI6
aI8
aI32
aI32
aI6
aI6
aI12
aI36
aI36
aI1
aI5
aI10
aI44
aI44
aI7
aI7
aI14
aI48
aI48
asg7
(lp53
F1.849
aF1.208
aF2.075
aF1.206
aF1.876
aF2.917
aF2.592
aF4.564
aF3.11
aF4.58
aF3.348
aF2.608
aF4.577
aF3.109
aF4.589
aF4.0
aF4.621
aF8.084
aF7.007
aF8.935
aF4.869
aF4.598
aF8.093
aF7.291
aF9.026
aF5.095
aF7.337
aF12.661
aF19.647
aF15.516
aF7.381
aF7.361
aF12.677
aF14.884
aF15.578
aF6.207
aF10.819
aF18.141
aF36.584
aF36.833
aF10.947
aF10.778
aF18.23
aF36.436
aF36.675
aF7.337
aF14.843
aF24.902
aF61.491
aF57.621
aF16.25
aF14.907
aF24.879
aF61.462
aF57.67
asg9
(lp54
I4
aI8
aI8
aI8
aI4
aI9
aI12
aI12
aI18
aI9
aI9
aI12
aI12
aI18
aI9
aI16
aI16
aI16
aI32
aI16
aI16
aI16
aI16
aI32
aI16
aI25
aI20
aI20
aI50
aI25
aI25
aI20
aI20
aI50
aI25
aI36
aI24
aI24
aI72
aI36
aI36
aI24
aI24
aI72
aI36
aI49
aI28
aI28
aI98
aI49
aI49
aI28
aI28
aI98
aI49
asg11
(lp55
F0.5
aF0.5
aF0.25
aF0.5
aF0.5
aF0.1111111111111111
aF0.3333333333333333
aF0.16666666666666666
aF0.2962962962962963
aF0.2962962962962963
aF0.3333333333333333
aF0.3333333333333333
aF0.16666666666666666
aF0.2962962962962963
aF0.2962962962962963
aF0.0625
aF0.25
aF0.125
aF0.21875
aF0.21875
aF0.25
aF0.25
aF0.125
aF0.25
aF0.25
aF0.04
aF0.2
aF0.1
aF0.176
aF0.176
aF0.2
aF0.2
aF0.1
aF0.192
aF0.192
aF0.027777777777777776
aF0.16666666666666666
aF0.08333333333333333
aF0.14814814814814814
aF0.14814814814814814
aF0.16666666666666666
aF0.16666666666666666
aF0.08333333333333333
aF0.16666666666666666
aF0.16666666666666666
aF0.02040816326530612
aF0.14285714285714285
aF0.07142857142857142
aF0.1282798833819242
aF0.1282798833819242
aF0.14285714285714285
aF0.14285714285714285
aF0.07142857142857142
aF0.13994169096209913
aF0.13994169096209913
asg13
(lp56
I32
aI32
aI64
aI32
aI32
aI108
aI108
aI216
aI162
aI162
aI108
aI108
aI216
aI162
aI162
aI256
aI256
aI512
aI512
aI512
aI256
aI256
aI512
aI512
aI512
aI500
aI500
aI1000
aI1250
aI1250
aI500
aI500
aI1000
aI1250
aI1250
aI864
aI864
aI1728
aI2592
aI2592
aI864
aI864
aI1728
aI2592
aI2592
aI1372
aI1372
aI2744
aI4802
aI4802
aI1372
aI1372
aI2744
aI4802
aI4802
asg15
(lp57
I16
aI16
aI16
aI16
aI16
aI12
aI36
aI36
aI48
aI48
aI36
aI36
aI36
aI48
aI48
aI16
aI64
aI64
aI112
aI112
aI64
aI64
aI64
aI128
aI128
aI20
aI100
aI100
aI220
aI220
aI100
aI100
aI100
aI240
aI240
aI24
aI144
aI144
aI384
aI384
aI144
aI144
aI144
aI432
aI432
aI28
aI196
aI196
aI616
aI616
aI196
aI196
aI196
aI672
aI672
asg17
(lp58
F1.788
aF1.205
aF2.005
aF1.188
aF1.724
aF2.814
aF2.586
aF4.563
aF3.09
aF4.494
aF3.183
aF2.595
aF4.565
aF3.074
aF4.395
aF4.005
aF4.604
aF8.109
aF7.02
aF8.957
aF4.85
aF4.63
aF8.149
aF7.294
aF9.036
aF5.128
aF7.418
aF12.693
aF19.639
aF15.502
aF7.377
aF7.373
aF12.657
aF20.045
aF15.552
aF6.144
aF10.645
aF18.075
aF31.337
aF24.769
aF11.16
aF10.818
aF18.202
aF31.698
aF26.053
aF7.365
aF14.691
aF25.016
aF45.569
aF38.116
aF16.291
aF14.784
aF24.709
aF47.918
aF39.362
asg19
(lp59
F1.9313125000000007
aF1.2209791666666663
aF2.0917291666666666
aF1.2155624999999999
aF1.9290833333333337
aF2.9353958333333345
aF2.620395833333334
aF4.586583333333333
aF3.186875
aF4.6016458333333325
aF3.3689166666666672
aF2.6329374999999993
aF4.5989999999999975
aF3.1701250000000005
aF4.607604166666667
aF4.0416041666666676
aF4.664166666666668
aF8.145874999999998
aF7.246083333333332
aF8.988624999999997
aF4.973270833333332
aF4.663062500000001
aF8.1498125
aF7.382354166666663
aF9.09229166666667
aF5.147770833333334
aF7.424499999999999
aF12.7648125
aF20.0215
aF15.60877083333333
aF7.487145833333332
aF7.426687499999997
aF12.751166666666668
aF20.53589583333334
aF15.66239583333334
aF6.235458333333331
aF10.897166666666665
aF18.235020833333333
aF37.041229166666675
aF37.03635416666666
aF11.173895833333335
aF10.891479166666665
aF18.346291666666666
aF36.847458333333336
aF36.99860416666667
aF7.431687500000003
aF14.998645833333333
aF25.038791666666665
aF62.47545833333333
aF57.893500000000024
aF16.497583333333335
aF15.09225
aF24.993499999999997
aF62.01695833333333
aF58.11012499999999
asg21
(lp60
I8
aI4
aI8
aI4
aI8
aI12
aI9
aI18
aI9
aI18
aI12
aI9
aI18
aI9
aI18
aI16
aI16
aI32
aI16
aI32
aI16
aI16
aI32
aI16
aI32
aI20
aI25
aI50
aI25
aI50
aI20
aI25
aI50
aI25
aI50
aI24
aI36
aI72
aI36
aI72
aI24
aI36
aI72
aI36
aI72
aI28
aI49
aI98
aI49
aI98
aI28
aI49
aI98
aI49
aI98
asg23
(lp61
S'example_mats_med/quad/p1/gauss-legendre/m0.txt'
p62
aS'example_mats_med/quad/p1/gauss-legendre/m3.txt'
p63
aS'example_mats_med/quad/p1/gauss-legendre/m6.txt'
p64
aS'example_mats_med/quad/p1/gauss-legendre/m132.txt'
p65
aS'example_mats_med/quad/p1/gauss-legendre/m460.txt'
p66
aS'example_mats_med/quad/p2/gauss-legendre-lobatto/m0.txt'
p67
aS'example_mats_med/quad/p2/gauss-legendre-lobatto/m3.txt'
p68
aS'example_mats_med/quad/p2/gauss-legendre-lobatto/m6.txt'
p69
aS'example_mats_med/quad/p2/gauss-legendre-lobatto/m132.txt'
p70
aS'example_mats_med/quad/p2/gauss-legendre-lobatto/m460.txt'
p71
aS'example_mats_med/quad/p2/gauss-legendre/m0.txt'
p72
aS'example_mats_med/quad/p2/gauss-legendre/m3.txt'
p73
aS'example_mats_med/quad/p2/gauss-legendre/m6.txt'
p74
aS'example_mats_med/quad/p2/gauss-legendre/m132.txt'
p75
aS'example_mats_med/quad/p2/gauss-legendre/m460.txt'
p76
aS'example_mats_med/quad/p3/gauss-legendre-lobatto/m0.txt'
p77
aS'example_mats_med/quad/p3/gauss-legendre-lobatto/m3.txt'
p78
aS'example_mats_med/quad/p3/gauss-legendre-lobatto/m6.txt'
p79
aS'example_mats_med/quad/p3/gauss-legendre-lobatto/m132.txt'
p80
aS'example_mats_med/quad/p3/gauss-legendre-lobatto/m460.txt'
p81
aS'example_mats_med/quad/p3/gauss-legendre/m0.txt'
p82
aS'example_mats_med/quad/p3/gauss-legendre/m3.txt'
p83
aS'example_mats_med/quad/p3/gauss-legendre/m6.txt'
p84
aS'example_mats_med/quad/p3/gauss-legendre/m132.txt'
p85
aS'example_mats_med/quad/p3/gauss-legendre/m460.txt'
p86
aS'example_mats_med/quad/p4/gauss-legendre-lobatto/m0.txt'
p87
aS'example_mats_med/quad/p4/gauss-legendre-lobatto/m3.txt'
p88
aS'example_mats_med/quad/p4/gauss-legendre-lobatto/m6.txt'
p89
aS'example_mats_med/quad/p4/gauss-legendre-lobatto/m132.txt'
p90
aS'example_mats_med/quad/p4/gauss-legendre-lobatto/m460.txt'
p91
aS'example_mats_med/quad/p4/gauss-legendre/m0.txt'
p92
aS'example_mats_med/quad/p4/gauss-legendre/m3.txt'
p93
aS'example_mats_med/quad/p4/gauss-legendre/m6.txt'
p94
aS'example_mats_med/quad/p4/gauss-legendre/m132.txt'
p95
aS'example_mats_med/quad/p4/gauss-legendre/m460.txt'
p96
aS'example_mats_med/quad/p5/gauss-legendre-lobatto/m0.txt'
p97
aS'example_mats_med/quad/p5/gauss-legendre-lobatto/m3.txt'
p98
aS'example_mats_med/quad/p5/gauss-legendre-lobatto/m6.txt'
p99
aS'example_mats_med/quad/p5/gauss-legendre-lobatto/m132.txt'
p100
aS'example_mats_med/quad/p5/gauss-legendre-lobatto/m460.txt'
p101
aS'example_mats_med/quad/p5/gauss-legendre/m0.txt'
p102
aS'example_mats_med/quad/p5/gauss-legendre/m3.txt'
p103
aS'example_mats_med/quad/p5/gauss-legendre/m6.txt'
p104
aS'example_mats_med/quad/p5/gauss-legendre/m132.txt'
p105
aS'example_mats_med/quad/p5/gauss-legendre/m460.txt'
p106
aS'example_mats_med/quad/p6/gauss-legendre-lobatto/m0.txt'
p107
aS'example_mats_med/quad/p6/gauss-legendre-lobatto/m3.txt'
p108
aS'example_mats_med/quad/p6/gauss-legendre-lobatto/m6.txt'
p109
aS'example_mats_med/quad/p6/gauss-legendre-lobatto/m132.txt'
p110
aS'example_mats_med/quad/p6/gauss-legendre-lobatto/m460.txt'
p111
aS'example_mats_med/quad/p6/gauss-legendre/m0.txt'
p112
aS'example_mats_med/quad/p6/gauss-legendre/m3.txt'
p113
aS'example_mats_med/quad/p6/gauss-legendre/m6.txt'
p114
aS'example_mats_med/quad/p6/gauss-legendre/m132.txt'
p115
aS'example_mats_med/quad/p6/gauss-legendre/m460.txt'
p116
asg45
(lp117
F1.0000863045471708
aF0.9971077122003509
aF1.0025962873091476
aF0.9922790428734205
aF0.9996221567293887
aF0.9995814356049326
aF1.00323833680298
aF1.0008774202934125
aF1.0131537116515656
aF1.0037262734084949
aF1.0179277351126783
aF1.0033502965250591
aF1.002201873181184
aF1.0076017428386026
aF1.0047474105033618
aF1.0013471941198335
aF1.0024896562841437
aF0.998684603733682
aF1.0090544864820956
aF0.9979160643452717
aF1.0115384289431082
aF0.9952157152194506
aF0.9935034755643822
aF0.9959079168879926
aF0.9993451121552684
aF0.9949746517892737
aF0.9878779982758096
aF0.9983282741630374
aF0.9951260123076733
aF0.9990039575021865
aF0.9985190989008543
aF0.9971942800237208
aF1.0017856996718308
aF1.0060718083966307
aF0.9896232351075065
aF0.9932138033562636
aF1.0074383380649534
aF0.9931489052204708
aF1.159544211569102
aF1.4739456419091745
aF0.979094521895805
aF0.9959346573319995
aF1.0023880963980494
aF1.1315375141947768
aF1.4018107405170948
aF1.0004010342758112
aF1.0067218735666903
aF0.9973106033260226
aF1.3499505498932896
aF1.4988697343943254
aF0.9851031088785471
aF1.0131109162537604
aF1.0072084506616563
aF1.2787935545121425
aF1.4613461447784102
asg47
(lp118
F1.931145833333334
aF1.2245208333333324
aF2.0863125000000005
aF1.2250208333333332
aF1.9298125000000004
aF2.9366249999999994
aF2.6119375000000002
aF4.582562500000002
aF3.1455000000000006
aF4.5845625
aF3.3095833333333324
aF2.6241458333333343
aF4.588895833333334
aF3.146208333333332
aF4.585833333333334
aF4.0361666666666665
aF4.652583333333333
aF8.156604166666666
aF7.181062499999999
aF9.007395833333332
aF4.916541666666668
aF4.685479166666666
aF8.203104166666668
aF7.412687500000001
aF9.098249999999998
aF5.173770833333334
aF7.515604166666665
aF12.786187499999999
aF20.119562499999997
aF15.624333333333333
aF7.498250000000001
aF7.447583333333335
aF12.728437499999998
aF20.41195833333333
aF15.826625
aF6.278062499999998
aF10.816708333333333
aF18.360812499999998
aF31.944645833333315
aF25.12735416666666
aF11.412479166666666
aF10.935937500000001
aF18.302583333333335
aF32.56406249999999
aF26.393437500000005
aF7.428708333333333
aF14.898499999999999
aF25.1063125
aF46.2798125
aF38.624770833333336
aF16.747062500000002
aF14.896937499999998
aF24.814624999999996
aF48.49645833333332
aF39.76479166666667
assS'tet'
p119
(dp120
g3
(lp121
F1.1793478260869563
aF1.0168255748738082
aF1.0397710153660742
aF1.0061728395061729
aF1.0621428571428573
aF1.030883344571814
aF0.996911196911197
aF1.016740012080421
aF0.5228087167070218
aF0.8906073605780086
aF0.5290126905579057
aF0.3946579140965424
aF0.8569423175089332
aF0.36669649374808677
asg5
(lp122
I3
aI6
aI6
aI2
aI2
aI14
aI28
aI28
aI46
aI46
aI40
aI80
aI80
aI101
asg7
(lp123
F3.038
aF1.813
aF3.451
aF1.467
aF1.487
aF7.644
aF9.037
aF11.783
aF5.398
aF7.889
aF13.256
aF13.948
aF33.575
aF31.145
asg9
(lp124
I4
aI12
aI12
aI12
aI4
aI10
aI24
aI24
aI30
aI10
aI20
aI40
aI40
aI35
asg11
(lp125
F1.0
aF1.0
aF0.5
aF0.5
aF0.5
aF1.0
aF1.0
aF0.5
aF0.84
aF0.84
aF1.0
aF1.0
aF0.5
aF1.0
asg13
(lp126
I48
aI48
aI144
aI48
aI48
aI240
aI240
aI720
aI300
aI300
aI800
aI800
aI2400
aI2100
asg15
(lp127
I48
aI48
aI72
aI24
aI24
aI240
aI240
aI360
aI252
aI252
aI800
aI800
aI1200
aI2100
asg17
(lp128
F2.576
aF1.783
aF3.319
aF1.458
aF1.4
aF7.415
aF9.065
aF11.589
aF10.325
aF8.858
aF25.058
aF35.342
aF39.18
aF84.934
asg19
(lp129
F3.141875
aF1.8335000000000001
aF3.4882500000000003
aF1.481625
aF1.5416041666666667
aF7.668687500000002
aF9.130979166666666
aF11.916354166666665
aF5.593000000000001
aF7.946416666666667
aF13.384354166666666
aF14.860124999999998
aF33.957187499999996
aF31.40891666666667
asg21
(lp130
I12
aI4
aI12
aI4
aI12
aI24
aI10
aI30
aI10
aI30
aI40
aI20
aI60
aI60
asg23
(lp131
S'example_mats_med/tet/p1/shunn-ham/m0.txt'
p132
aS'example_mats_med/tet/p1/shunn-ham/m3.txt'
p133
aS'example_mats_med/tet/p1/shunn-ham/m6.txt'
p134
aS'example_mats_med/tet/p1/shunn-ham/m132.txt'
p135
aS'example_mats_med/tet/p1/shunn-ham/m460.txt'
p136
aS'example_mats_med/tet/p2/shunn-ham/m0.txt'
p137
aS'example_mats_med/tet/p2/shunn-ham/m3.txt'
p138
aS'example_mats_med/tet/p2/shunn-ham/m6.txt'
p139
aS'example_mats_med/tet/p2/shunn-ham/m132.txt'
p140
aS'example_mats_med/tet/p2/shunn-ham/m460.txt'
p141
aS'example_mats_med/tet/p3/shunn-ham/m0.txt'
p142
aS'example_mats_med/tet/p3/shunn-ham/m3.txt'
p143
aS'example_mats_med/tet/p3/shunn-ham/m6.txt'
p144
aS'example_mats_med/tet/p4/shunn-ham/m0.txt'
p145
asg45
(lp146
F0.9961161970435538
aF1.0198859685718262
aF1.004336794371165
aF0.9913159838864797
aF0.9908012425686898
aF1.015532448471171
aF0.9937399103952405
aF1.0137228352373624
aF0.5300720481294933
aF0.8763906568081871
aF0.5316741575916271
aF0.4183399910500581
aF0.8624604339539377
aF0.36924073161992427
asg47
(lp147
F3.154125000000001
aF1.7977499999999995
aF3.4731874999999994
aF1.4946041666666678
aF1.555916666666666
aF7.551395833333337
aF9.1885
aF11.755041666666669
aF10.551395833333332
aF9.067208333333333
aF25.17397916666666
aF35.52164583333333
aF39.372458333333334
aF85.06352083333333
assS'hex'
p148
(dp149
g3
(lp150
F1.0525925925925925
aF1.0027855153203344
aF1.0003042750646585
aF1.003058103975535
aF1.0445916905444128
aF0.991838798208869
aF1.0110830455178101
aF1.0060884815194733
aF0.9859501628417784
aF0.9954640614096302
aF1.009327680193822
aF0.989647921496738
aF1.0067629981525468
aF0.9577480408102913
aF0.9974238057811544
aF0.9954803235742867
aF0.9819401197604791
aF1.0141651773943106
aF0.9909472788663495
aF1.0090539541759054
aF1.0024751273962629
aF0.989401153192813
aF0.9972801186857301
aF0.9986277125121839
aF1.012183578124523
aF1.0093837005465232
aF1.0362381596752368
aF1.0282828913481201
aF1.0417477223588205
aF1.0064338235294117
aF1.0085157114876948
aF1.0170946956165072
aF1.0277552358063609
aF1.0158289861523513
aF1.0012405650843654
aF1.0236432025792583
aF1.062002018594041
aF1.0298183026504644
aF7.270131566669777
aF6.947105046101274
aF1.0701324954104472
aF1.066735181010476
aF1.0296932742054694
aF6.974993393405843
aF6.73408242346317
aF1.0306231318667893
aF1.0680187005591832
aF1.0194944993114887
aF10.492508796322152
aF11.477615696696969
aF1.0935373434928926
aF1.0763516412786955
aF1.024452086647176
aF10.168590926529024
aF10.75631487195771
asg5
(lp151
I2
aI2
aI4
aI2
aI2
aI1
aI3
aI6
aI6
aI6
aI3
aI3
aI6
aI8
aI8
aI1
aI4
aI6
aI14
aI14
aI4
aI4
aI8
aI16
aI16
aI1
aI4
aI8
aI22
aI22
aI5
aI5
aI10
aI24
aI24
aI1
aI6
aI8
aI32
aI32
aI6
aI6
aI12
aI36
aI36
aI1
aI5
aI10
aI44
aI44
aI7
aI7
aI14
aI48
aI48
asg7
(lp152
F5.684
aF3.24
aF6.575
aF3.28
aF5.833
aF13.733
aF19.614
aF30.405
aF26.035
aF22.824
aF16.664
aF18.355
aF30.517
aF25.909
aF22.843
aF34.58
aF40.996
aF69.233
aF74.545
aF65.532
aF41.312
aF41.354
aF68.566
aF77.865
aF66.296
aF58.732
aF76.578
aF131.758
aF182.609
aF142.35
aF82.901
aF76.871
aF131.713
aF187.135
aF143.661
aF89.535
aF129.423
aF223.14
aF2649.076
aF1886.667
aF155.639
aF128.708
aF222.908
aF2692.194
aF1906.412
aF126.543
aF198.063
aF344.26800000000003
aF7139.082
aF6840.636
aF338.265
aF200.675
aF345.854
aF7262.55
aF6842.705
asg9
(lp153
I8
aI24
aI24
aI24
aI8
aI27
aI54
aI54
aI81
aI27
aI27
aI54
aI54
aI81
aI27
aI64
aI96
aI96
aI192
aI64
aI64
aI96
aI96
aI192
aI64
aI125
aI150
aI150
aI375
aI125
aI125
aI150
aI150
aI375
aI125
aI216
aI216
aI216
aI648
aI216
aI216
aI216
aI216
aI648
aI216
aI343
aI294
aI294
aI1029
aI343
aI343
aI294
aI294
aI1029
aI343
asg11
(lp154
F0.25
aF0.25
aF0.08333333333333333
aF0.25
aF0.25
aF0.037037037037037035
aF0.1111111111111111
aF0.037037037037037035
aF0.09876543209876543
aF0.09876543209876543
aF0.1111111111111111
aF0.1111111111111111
aF0.037037037037037035
aF0.09876543209876543
aF0.09876543209876543
aF0.015625
aF0.0625
aF0.020833333333333332
aF0.0546875
aF0.0546875
aF0.0625
aF0.0625
aF0.020833333333333332
aF0.0625
aF0.0625
aF0.008
aF0.04
aF0.013333333333333334
aF0.0352
aF0.0352
aF0.04
aF0.04
aF0.013333333333333334
aF0.0384
aF0.0384
aF0.004629629629629629
aF0.027777777777777776
aF0.009259259259259259
aF0.024691358024691357
aF0.024691358024691357
aF0.027777777777777776
aF0.027777777777777776
aF0.009259259259259259
aF0.027777777777777776
aF0.027777777777777776
aF0.0029154518950437317
aF0.02040816326530612
aF0.006802721088435374
aF0.018325697625989172
aF0.018325697625989172
aF0.02040816326530612
aF0.02040816326530612
aF0.006802721088435374
aF0.019991670137442734
aF0.019991670137442734
asg13
(lp155
I192
aI192
aI576
aI192
aI192
aI1458
aI1458
aI4374
aI2187
aI2187
aI1458
aI1458
aI4374
aI2187
aI2187
aI6144
aI6144
aI18432
aI12288
aI12288
aI6144
aI6144
aI18432
aI12288
aI12288
aI18750
aI18750
aI56250
aI46875
aI46875
aI18750
aI18750
aI56250
aI46875
aI46875
aI46656
aI46656
aI139968
aI139968
aI139968
aI46656
aI46656
aI139968
aI139968
aI139968
aI100842
aI100842
aI302526
aI352947
aI352947
aI100842
aI100842
aI302526
aI352947
aI352947
asg15
(lp156
I48
aI48
aI48
aI48
aI48
aI54
aI162
aI162
aI216
aI216
aI162
aI162
aI162
aI216
aI216
aI96
aI384
aI384
aI672
aI672
aI384
aI384
aI384
aI768
aI768
aI150
aI750
aI750
aI1650
aI1650
aI750
aI750
aI750
aI1800
aI1800
aI216
aI1296
aI1296
aI3456
aI3456
aI1296
aI1296
aI1296
aI3888
aI3888
aI294
aI2058
aI2058
aI6468
aI6468
aI2058
aI2058
aI2058
aI7056
aI7056
asg17
(lp157
F5.4
aF3.231
aF6.573
aF3.27
aF5.584
aF13.846
aF19.399
aF30.221
aF26.406
aF22.928
aF16.51
aF18.547
aF30.312
aF27.052
aF22.902
aF34.737
aF41.75
aF68.266
aF75.226
aF64.944
aF41.21
aF41.797
aF68.753
aF77.972
aF65.498
aF58.186
aF73.9
aF128.134
aF175.291
aF141.44
aF82.201
aF75.579
aF128.156
aF184.219
aF143.483
aF87.467
aF121.867
aF216.679
aF364.378
aF271.576
aF145.439
aF120.656
aF216.48
aF385.97799999999995
aF283.099
aF122.783
aF185.449
aF337.68499999999995
aF680.398
aF595.998
aF309.331
aF186.44
aF337.599
aF714.2139999999999
aF636.1569999999999
asg19
(lp158
F5.872624999999999
aF3.347249999999999
aF6.698625000000001
aF3.394104166666668
aF5.857187500000001
aF13.833125
aF19.977750000000004
aF31.080770833333343
aF26.744541666666674
aF23.005354166666667
aF16.815708333333333
aF19.038166666666665
aF31.091375000000003
aF26.82397916666667
aF23.03822916666667
aF35.23137499999999
aF41.54158333333334
aF69.56841666666669
aF74.74195833333334
aF66.14747916666666
aF42.25779166666666
aF42.01895833333334
aF69.22941666666667
aF78.26131250000002
aF66.97120833333334
aF59.142979166666656
aF76.89929166666667
aF131.96341666666666
aF183.74072916666668
aF142.47860416666668
aF83.02283333333334
aF77.05147916666665
aF131.8075208333333
aF188.60333333333332
aF143.77679166666667
aF89.6526875
aF129.56960416666666
aF223.53154166666664
aF2725.1964791666664
aF1906.193833333333
aF156.15445833333334
aF128.87343750000002
aF223.5055416666667
aF2744.1002291666664
aF1924.8047916666665
aF126.70279166666673
aF198.66052083333327
aF344.60335416666663
aF7274.249895833334
aF6917.7811458333335
aF339.96808333333325
aF201.77381250000005
aF346.44310416666667
aF7380.755354166668
aF6914.338125000001
asg21
(lp159
I24
aI8
aI24
aI8
aI24
aI54
aI27
aI81
aI27
aI81
aI54
aI27
aI81
aI27
aI81
aI96
aI64
aI192
aI64
aI192
aI96
aI64
aI192
aI64
aI192
aI150
aI125
aI375
aI125
aI375
aI150
aI125
aI375
aI125
aI375
aI216
aI216
aI648
aI216
aI648
aI216
aI216
aI648
aI216
aI648
aI294
aI343
aI1029
aI343
aI1029
aI294
aI343
aI1029
aI343
aI1029
asg23
(lp160
S'example_mats_med/hex/p1/gauss-legendre/m0.txt'
p161
aS'example_mats_med/hex/p1/gauss-legendre/m3.txt'
p162
aS'example_mats_med/hex/p1/gauss-legendre/m6.txt'
p163
aS'example_mats_med/hex/p1/gauss-legendre/m132.txt'
p164
aS'example_mats_med/hex/p1/gauss-legendre/m460.txt'
p165
aS'example_mats_med/hex/p2/gauss-legendre-lobatto/m0.txt'
p166
aS'example_mats_med/hex/p2/gauss-legendre-lobatto/m3.txt'
p167
aS'example_mats_med/hex/p2/gauss-legendre-lobatto/m6.txt'
p168
aS'example_mats_med/hex/p2/gauss-legendre-lobatto/m132.txt'
p169
aS'example_mats_med/hex/p2/gauss-legendre-lobatto/m460.txt'
p170
aS'example_mats_med/hex/p2/gauss-legendre/m0.txt'
p171
aS'example_mats_med/hex/p2/gauss-legendre/m3.txt'
p172
aS'example_mats_med/hex/p2/gauss-legendre/m6.txt'
p173
aS'example_mats_med/hex/p2/gauss-legendre/m132.txt'
p174
aS'example_mats_med/hex/p2/gauss-legendre/m460.txt'
p175
aS'example_mats_med/hex/p3/gauss-legendre-lobatto/m0.txt'
p176
aS'example_mats_med/hex/p3/gauss-legendre-lobatto/m3.txt'
p177
aS'example_mats_med/hex/p3/gauss-legendre-lobatto/m6.txt'
p178
aS'example_mats_med/hex/p3/gauss-legendre-lobatto/m132.txt'
p179
aS'example_mats_med/hex/p3/gauss-legendre-lobatto/m460.txt'
p180
aS'example_mats_med/hex/p3/gauss-legendre/m0.txt'
p181
aS'example_mats_med/hex/p3/gauss-legendre/m3.txt'
p182
aS'example_mats_med/hex/p3/gauss-legendre/m6.txt'
p183
aS'example_mats_med/hex/p3/gauss-legendre/m132.txt'
p184
aS'example_mats_med/hex/p3/gauss-legendre/m460.txt'
p185
aS'example_mats_med/hex/p4/gauss-legendre-lobatto/m0.txt'
p186
aS'example_mats_med/hex/p4/gauss-legendre-lobatto/m3.txt'
p187
aS'example_mats_med/hex/p4/gauss-legendre-lobatto/m6.txt'
p188
aS'example_mats_med/hex/p4/gauss-legendre-lobatto/m132.txt'
p189
aS'example_mats_med/hex/p4/gauss-legendre-lobatto/m460.txt'
p190
aS'example_mats_med/hex/p4/gauss-legendre/m0.txt'
p191
aS'example_mats_med/hex/p4/gauss-legendre/m3.txt'
p192
aS'example_mats_med/hex/p4/gauss-legendre/m6.txt'
p193
aS'example_mats_med/hex/p4/gauss-legendre/m132.txt'
p194
aS'example_mats_med/hex/p4/gauss-legendre/m460.txt'
p195
aS'example_mats_med/hex/p5/gauss-legendre-lobatto/m0.txt'
p196
aS'example_mats_med/hex/p5/gauss-legendre-lobatto/m3.txt'
p197
aS'example_mats_med/hex/p5/gauss-legendre-lobatto/m6.txt'
p198
aS'example_mats_med/hex/p5/gauss-legendre-lobatto/m132.txt'
p199
aS'example_mats_med/hex/p5/gauss-legendre-lobatto/m460.txt'
p200
aS'example_mats_med/hex/p5/gauss-legendre/m0.txt'
p201
aS'example_mats_med/hex/p5/gauss-legendre/m3.txt'
p202
aS'example_mats_med/hex/p5/gauss-legendre/m6.txt'
p203
aS'example_mats_med/hex/p5/gauss-legendre/m132.txt'
p204
aS'example_mats_med/hex/p5/gauss-legendre/m460.txt'
p205
aS'example_mats_med/hex/p6/gauss-legendre-lobatto/m0.txt'
p206
aS'example_mats_med/hex/p6/gauss-legendre-lobatto/m3.txt'
p207
aS'example_mats_med/hex/p6/gauss-legendre-lobatto/m6.txt'
p208
aS'example_mats_med/hex/p6/gauss-legendre-lobatto/m132.txt'
p209
aS'example_mats_med/hex/p6/gauss-legendre-lobatto/m460.txt'
p210
aS'example_mats_med/hex/p6/gauss-legendre/m0.txt'
p211
aS'example_mats_med/hex/p6/gauss-legendre/m3.txt'
p212
aS'example_mats_med/hex/p6/gauss-legendre/m6.txt'
p213
aS'example_mats_med/hex/p6/gauss-legendre/m132.txt'
p214
aS'example_mats_med/hex/p6/gauss-legendre/m460.txt'
p215
asg45
(lp216
F0.999432716649057
aF1.0078789551602136
aF1.0046618881271836
aF1.0016785125796224
aF1.0002170169771316
aF0.9934720125442692
aF1.010479595610899
aF1.005077000500559
aF0.9943471754466959
aF0.9959405027968231
aF1.0094345993671918
aF0.9927323844514307
aF1.0012660189641187
aF0.9642099445610608
aF0.9998951128937904
aF0.9965409057052075
aF0.9831716569877812
aF1.0149694501637374
aF0.9911773514262007
aF1.0081677015872452
aF0.9972796199629577
aF0.9941766351657497
aF1.0032134110702673
aF1.0005657333398326
aF1.0122702361593776
aF1.0084967912339313
aF1.0377538741818673
aF1.0289598646386724
aF1.0412922734930405
aF1.0060969213959958
aF1.0080658502836937
aF1.0174230070071653
aF1.0276820273600829
aF1.0165852466586054
aF1.0012953476879753
aF1.0237161409113777
aF1.061897966403589
aF1.0305097527807492
aF7.463920480514009
aF7.009987726413952
aF1.071670569934259
aF1.066815981324803
aF1.0310117532233456
aF7.100056458997744
aF6.792121692465501
aF1.0307642870144804
aF1.0682726429049305
aF1.0193647089201865
aF10.662667458855482
aF11.572959097644212
aF1.0955265291347454
aF1.078698136937064
aF1.024989327438143
aF10.302474728383068
aF10.834767655200983
asg47
(lp217
F5.875958333333334
aF3.3210833333333327
aF6.667541666666666
aF3.388416666666666
aF5.855916666666666
aF13.924020833333335
aF19.7705625
aF30.92377083333334
aF26.89658333333333
aF23.099125
aF16.65854166666666
aF19.177541666666666
aF31.052062500000005
aF27.819645833333325
aF23.04064583333333
aF35.353666666666655
aF42.252624999999995
aF68.54237499999999
aF75.40724999999998
aF65.61158333333331
aF42.37306250000001
aF42.26508333333333
aF69.00766666666668
aF78.2170625
aF66.15941666666667
aF58.64468750000001
aF74.10166666666667
aF128.24933333333334
aF176.45452083333328
aF141.61518749999996
aF82.35854166666665
aF75.73200000000001
aF128.25710416666666
aF185.52633333333335
aF143.5907916666667
aF87.57572916666668
aF122.01699999999995
aF216.91356250000004
aF365.11595833333337
aF271.92541666666665
aF145.71125000000004
aF120.80193750000001
aF216.78272916666666
aF386.48991666666666
aF283.38785416666667
aF122.92120833333331
aF185.96425000000002
aF338.0569791666666
aF682.2167083333333
aF597.7538750000002
aF310.3239166666666
aF187.05308333333332
aF337.9967916666665
aF716.4060624999998
aF638.1621041666667
ass.