(dp0
S'tri'
p1
(dp2
S'speedup_best'
p3
(lp4
F1.2817391304347827
aF1.1840101522842639
aF1.073356401384083
aF1.2338935574229692
aF1.330163043478261
aF1.0497816593886462
aF1.027777777777778
aF1.0570042449969679
aF1.0464224872231687
aF1.2173913043478262
aF1.0431729518855657
aF0.7167461579226285
aF0.9038224414303331
aF0.5163712826674677
aF0.7852869846402588
aF0.5923700391280087
aF0.5958183328717807
aF0.9735669119933658
aF0.5300925925925926
aF0.4319546936674103
asS'a_unique'
p5
(lp6
I3
aI6
aI6
aI2
aI2
aI10
aI20
aI20
aI28
aI28
aI20
aI40
aI40
aI96
aI96
aI39
aI78
aI78
aI63
aI100
asS'xsmm_upstream_best'
p7
(lp8
F1.474
aF0.933
aF1.551
aF0.881
aF0.979
aF2.404
aF2.035
aF3.486
aF2.457
aF3.36
aF4.011
aF2.705
aF5.131
aF3.438
aF4.857
aF4.239
aF4.303
aF9.392
aF6.641
aF10.068
asS'a_cols'
p9
(lp10
I3
aI6
aI6
aI6
aI3
aI6
aI9
aI9
aI12
aI6
aI10
aI12
aI12
aI20
aI10
aI15
aI15
aI15
aI21
aI28
asS'density'
p11
(lp12
F1.0
aF1.0
aF0.6666666666666666
aF0.6666666666666666
aF0.6666666666666666
aF1.0
aF1.0
aF0.6666666666666666
aF0.8888888888888888
aF0.8888888888888888
aF1.0
aF1.0
aF0.6666666666666666
aF0.96
aF0.96
aF1.0
aF1.0
aF0.6666666666666666
aF1.0
aF1.0
asS'a_size'
p13
(lp14
I18
aI18
aI36
aI18
aI18
aI54
aI54
aI108
aI72
aI72
aI120
aI120
aI240
aI200
aI200
aI225
aI225
aI450
aI378
aI588
asS'a_nonzero'
p15
(lp16
I18
aI18
aI24
aI12
aI12
aI54
aI54
aI72
aI64
aI64
aI120
aI120
aI160
aI192
aI192
aI225
aI225
aI300
aI378
aI588
asS'xsmm_local_best'
p17
(lp18
F1.15
aF0.788
aF1.445
aF0.714
aF0.736
aF2.29
aF1.98
aF3.298
aF2.348
aF2.76
aF3.845
aF3.774
aF5.677
aF6.658
aF6.185
aF7.155999999999949
aF7.222
aF9.647
aF12.528
aF23.308
asS'xsmm_upstream_avg'
p19
(lp20
F1.498520833333333
aF0.9409583333333339
aF1.619854166666668
aF0.8988333333333328
aF1.0048958333333335
aF2.4196041666666672
aF2.050125
aF3.5072708333333327
aF2.4765416666666673
aF3.408479166666666
aF4.023625
aF2.739479166666666
aF5.168333333333334
aF3.580916666666665
aF4.9186250000000005
aF4.315208333333335
aF4.376520833333333
aF9.458666666666664
aF6.796875
aF10.775083333333333
asS'a_rows'
p21
(lp22
I6
aI3
aI6
aI3
aI6
aI9
aI6
aI12
aI6
aI12
aI12
aI10
aI20
aI10
aI20
aI15
aI15
aI30
aI18
aI21
asS'mat_file'
p23
(lp24
S'example_mats_med/tri/p1/williams-shunn/m0.txt'
p25
aS'example_mats_med/tri/p1/williams-shunn/m3.txt'
p26
aS'example_mats_med/tri/p1/williams-shunn/m6.txt'
p27
aS'example_mats_med/tri/p1/williams-shunn/m132.txt'
p28
aS'example_mats_med/tri/p1/williams-shunn/m460.txt'
p29
aS'example_mats_med/tri/p2/williams-shunn/m0.txt'
p30
aS'example_mats_med/tri/p2/williams-shunn/m3.txt'
p31
aS'example_mats_med/tri/p2/williams-shunn/m6.txt'
p32
aS'example_mats_med/tri/p2/williams-shunn/m132.txt'
p33
aS'example_mats_med/tri/p2/williams-shunn/m460.txt'
p34
aS'example_mats_med/tri/p3/williams-shunn/m0.txt'
p35
aS'example_mats_med/tri/p3/williams-shunn/m3.txt'
p36
aS'example_mats_med/tri/p3/williams-shunn/m6.txt'
p37
aS'example_mats_med/tri/p3/williams-shunn/m132.txt'
p38
aS'example_mats_med/tri/p3/williams-shunn/m460.txt'
p39
aS'example_mats_med/tri/p4/williams-shunn/m0.txt'
p40
aS'example_mats_med/tri/p4/williams-shunn/m3.txt'
p41
aS'example_mats_med/tri/p4/williams-shunn/m6.txt'
p42
aS'example_mats_med/tri/p5/williams-shunn/m0.txt'
p43
aS'example_mats_med/tri/p6/williams-shunn/m0.txt'
p44
asS'speedup_avg'
p45
(lp46
F1.0021874825837374
aF0.9991151617041987
aF0.9987668435047341
aF1.0158700259006348
aF0.9936960507612124
aF1.006011416494149
aF1.0235378550700522
aF1.0212873089056045
aF1.0471358226967222
aF1.0245159431906419
aF1.0160776102442153
aF0.7052334062727935
aF0.8754786229774322
aF0.5280906471018366
aF0.7707958563364559
aF0.5957146965775096
aF0.5971087241378329
aF0.9701134394437639
aF0.536842624893043
aF0.459049742429998
asS'xsmm_local_avg'
p47
(lp48
F1.4952499999999997
aF0.9417916666666671
aF1.621854166666667
aF0.884791666666667
aF1.0112708333333333
aF2.4051458333333335
aF2.002979166666666
aF3.4341666666666693
aF2.3650625000000005
aF3.326916666666666
aF3.959958333333334
aF3.884499999999999
aF5.903437499999999
aF6.780874999999998
aF6.381229166666665
aF7.2437499999999995
aF7.329520833333334
aF9.7500625
aF12.66083333333333
aF23.472583333333336
assS'quad'
p49
(dp50
g3
(lp51
F1.1574603174603175
aF1.0033444816053512
aF1.0724262803931712
aF1.1535508637236083
aF0.9933993399339934
aF1.1026904130352408
aF1.000385059684251
aF1.0477721635277906
aF0.9986842105263158
aF1.0804352969008753
aF1.1317567567567568
aF0.9996133023975252
aF1.0449850814780812
aF1.0032647730982696
aF1.0505747126436784
aF1.0518694049499737
aF1.0010926573426575
aF1.0012465719272001
aF0.9758771929824561
aF0.9906710127009104
aF1.0010322047894302
aF1.001085776330076
aF1.0051410658307212
aF1.0115406006674084
aF0.9952147785444005
aF1.0025717111770525
aF1.0024745669507835
aF1.0091470753430154
aF1.0239742558326628
aF1.005883121976729
aF0.9797045423167196
aF1.0
aF1.0133064516129031
aF0.9982237109216403
aF1.0034917555771097
aF1.0038847523470378
aF1.001662817551963
aF1.0038412994567305
aF1.1705228173335036
aF1.495374127576692
aF1.0129643251195293
aF1.0154648956356735
aF1.0109002379239749
aF1.1223533762751572
aF1.4385548728319204
aF0.9952535937076215
aF0.9928231269702863
aF1.0032598197037992
aF1.33945931838448
aF1.5011536567028751
aF1.0004934311971874
aF1.0071099674972914
aF1.0014492170202487
aF1.2765295325823116
aF1.45249232935969
asg5
(lp52
I2
aI2
aI4
aI2
aI2
aI1
aI3
aI6
aI6
aI6
aI3
aI3
aI6
aI8
aI8
aI1
aI4
aI6
aI14
aI14
aI4
aI4
aI8
aI16
aI16
aI1
aI4
aI8
aI22
aI22
aI5
aI5
aI10
aI24
aI24
aI1
aI6
aI8
aI32
aI32
aI6
aI6
aI12
aI36
aI36
aI1
aI5
aI10
aI44
aI44
aI7
aI7
aI14
aI48
aI48
asg7
(lp53
F1.823
aF1.2
aF2.073
aF1.202
aF1.806
aF2.91
aF2.598
aF4.562
aF3.036
aF4.567
aF3.35
aF2.585
aF4.553
aF3.073
aF4.57
aF3.995
aF4.581
aF8.032
aF6.675
aF8.814
aF4.849
aF4.61
aF8.016
aF7.275
aF8.942999999999984
aF5.068
aF7.292
aF12.577
aF19.092
aF15.388
aF7.096
aF7.289
aF12.565
aF19.669
aF15.519
aF6.202
aF10.843
aF18.293
aF36.628
aF36.852
aF11.017
aF10.703
aF18.27
aF36.41700000000003
aF36.991
aF7.339
aF14.802
aF24.929
aF61.587
aF57.904
aF16.221
aF14.873
aF24.877
aF61.53
aF57.754
asg9
(lp54
I4
aI8
aI8
aI8
aI4
aI9
aI12
aI12
aI18
aI9
aI9
aI12
aI12
aI18
aI9
aI16
aI16
aI16
aI32
aI16
aI16
aI16
aI16
aI32
aI16
aI25
aI20
aI20
aI50
aI25
aI25
aI20
aI20
aI50
aI25
aI36
aI24
aI24
aI72
aI36
aI36
aI24
aI24
aI72
aI36
aI49
aI28
aI28
aI98
aI49
aI49
aI28
aI28
aI98
aI49
asg11
(lp55
F0.5
aF0.5
aF0.25
aF0.5
aF0.5
aF0.1111111111111111
aF0.3333333333333333
aF0.16666666666666666
aF0.2962962962962963
aF0.2962962962962963
aF0.3333333333333333
aF0.3333333333333333
aF0.16666666666666666
aF0.2962962962962963
aF0.2962962962962963
aF0.0625
aF0.25
aF0.125
aF0.21875
aF0.21875
aF0.25
aF0.25
aF0.125
aF0.25
aF0.25
aF0.04
aF0.2
aF0.1
aF0.176
aF0.176
aF0.2
aF0.2
aF0.1
aF0.192
aF0.192
aF0.027777777777777776
aF0.16666666666666666
aF0.08333333333333333
aF0.14814814814814814
aF0.14814814814814814
aF0.16666666666666666
aF0.16666666666666666
aF0.08333333333333333
aF0.16666666666666666
aF0.16666666666666666
aF0.02040816326530612
aF0.14285714285714285
aF0.07142857142857142
aF0.1282798833819242
aF0.1282798833819242
aF0.14285714285714285
aF0.14285714285714285
aF0.07142857142857142
aF0.13994169096209913
aF0.13994169096209913
asg13
(lp56
I32
aI32
aI64
aI32
aI32
aI108
aI108
aI216
aI162
aI162
aI108
aI108
aI216
aI162
aI162
aI256
aI256
aI512
aI512
aI512
aI256
aI256
aI512
aI512
aI512
aI500
aI500
aI1000
aI1250
aI1250
aI500
aI500
aI1000
aI1250
aI1250
aI864
aI864
aI1728
aI2592
aI2592
aI864
aI864
aI1728
aI2592
aI2592
aI1372
aI1372
aI2744
aI4802
aI4802
aI1372
aI1372
aI2744
aI4802
aI4802
asg15
(lp57
I16
aI16
aI16
aI16
aI16
aI12
aI36
aI36
aI48
aI48
aI36
aI36
aI36
aI48
aI48
aI16
aI64
aI64
aI112
aI112
aI64
aI64
aI64
aI128
aI128
aI20
aI100
aI100
aI220
aI220
aI100
aI100
aI100
aI240
aI240
aI24
aI144
aI144
aI384
aI384
aI144
aI144
aI144
aI432
aI432
aI28
aI196
aI196
aI616
aI616
aI196
aI196
aI196
aI672
aI672
asg17
(lp58
F1.575
aF1.196
aF1.933
aF1.042
aF1.818
aF2.639
aF2.597
aF4.354
aF3.04
aF4.227
aF2.96
aF2.586
aF4.357
aF3.063
aF4.35
aF3.798
aF4.576
aF8.022
aF6.84
aF8.897
aF4.844
aF4.605
aF7.975
aF7.192
aF8.986
aF5.055
aF7.274000000000001
aF12.463
aF18.645
aF15.298
aF7.243
aF7.289
aF12.4
aF19.704
aF15.465
aF6.178
aF10.825
aF18.223
aF31.292
aF24.644
aF10.876
aF10.54
aF18.073
aF32.447
aF25.714
aF7.374
aF14.909
aF24.848
aF45.979
aF38.573
aF16.213
aF14.768
aF24.841
aF48.201
aF39.762
asg19
(lp59
F1.9306666666666652
aF1.2160416666666667
aF2.0883125
aF1.2134999999999996
aF1.9260416666666662
aF2.930875
aF2.6252916666666666
aF4.590979166666667
aF3.0883541666666665
aF4.590291666666666
aF3.3771874999999993
aF2.6077291666666658
aF4.572708333333334
aF3.1494999999999997
aF4.593625
aF4.016770833333332
aF4.627479166666666
aF8.07516666666667
aF6.8929166666666655
aF8.850666666666667
aF4.893604166666667
aF4.654749999999999
aF8.073020833333334
aF7.474979166666667
aF9.010041666666666
aF5.122729166666667
aF7.379124999999999
aF12.703895833333336
aF19.607291666666665
aF15.544916666666666
aF7.190833333333331
aF7.381249999999999
aF12.707041666666667
aF20.16539583333333
aF15.724854166666661
aF6.2973125
aF10.959229166666665
aF18.407687499999998
aF36.96772916666667
aF37.093375
aF11.297000000000002
aF10.829604166666664
aF18.40814583333333
aF36.86533333333333
aF37.2845625
aF7.417999999999998
aF14.966541666666664
aF25.03358333333334
aF62.46787499999999
aF58.213854166666664
aF16.705208333333335
aF15.0665
aF25.043937500000002
aF62.208312500000005
aF58.26491666666667
asg21
(lp60
I8
aI4
aI8
aI4
aI8
aI12
aI9
aI18
aI9
aI18
aI12
aI9
aI18
aI9
aI18
aI16
aI16
aI32
aI16
aI32
aI16
aI16
aI32
aI16
aI32
aI20
aI25
aI50
aI25
aI50
aI20
aI25
aI50
aI25
aI50
aI24
aI36
aI72
aI36
aI72
aI24
aI36
aI72
aI36
aI72
aI28
aI49
aI98
aI49
aI98
aI28
aI49
aI98
aI49
aI98
asg23
(lp61
S'example_mats_med/quad/p1/gauss-legendre/m0.txt'
p62
aS'example_mats_med/quad/p1/gauss-legendre/m3.txt'
p63
aS'example_mats_med/quad/p1/gauss-legendre/m6.txt'
p64
aS'example_mats_med/quad/p1/gauss-legendre/m132.txt'
p65
aS'example_mats_med/quad/p1/gauss-legendre/m460.txt'
p66
aS'example_mats_med/quad/p2/gauss-legendre-lobatto/m0.txt'
p67
aS'example_mats_med/quad/p2/gauss-legendre-lobatto/m3.txt'
p68
aS'example_mats_med/quad/p2/gauss-legendre-lobatto/m6.txt'
p69
aS'example_mats_med/quad/p2/gauss-legendre-lobatto/m132.txt'
p70
aS'example_mats_med/quad/p2/gauss-legendre-lobatto/m460.txt'
p71
aS'example_mats_med/quad/p2/gauss-legendre/m0.txt'
p72
aS'example_mats_med/quad/p2/gauss-legendre/m3.txt'
p73
aS'example_mats_med/quad/p2/gauss-legendre/m6.txt'
p74
aS'example_mats_med/quad/p2/gauss-legendre/m132.txt'
p75
aS'example_mats_med/quad/p2/gauss-legendre/m460.txt'
p76
aS'example_mats_med/quad/p3/gauss-legendre-lobatto/m0.txt'
p77
aS'example_mats_med/quad/p3/gauss-legendre-lobatto/m3.txt'
p78
aS'example_mats_med/quad/p3/gauss-legendre-lobatto/m6.txt'
p79
aS'example_mats_med/quad/p3/gauss-legendre-lobatto/m132.txt'
p80
aS'example_mats_med/quad/p3/gauss-legendre-lobatto/m460.txt'
p81
aS'example_mats_med/quad/p3/gauss-legendre/m0.txt'
p82
aS'example_mats_med/quad/p3/gauss-legendre/m3.txt'
p83
aS'example_mats_med/quad/p3/gauss-legendre/m6.txt'
p84
aS'example_mats_med/quad/p3/gauss-legendre/m132.txt'
p85
aS'example_mats_med/quad/p3/gauss-legendre/m460.txt'
p86
aS'example_mats_med/quad/p4/gauss-legendre-lobatto/m0.txt'
p87
aS'example_mats_med/quad/p4/gauss-legendre-lobatto/m3.txt'
p88
aS'example_mats_med/quad/p4/gauss-legendre-lobatto/m6.txt'
p89
aS'example_mats_med/quad/p4/gauss-legendre-lobatto/m132.txt'
p90
aS'example_mats_med/quad/p4/gauss-legendre-lobatto/m460.txt'
p91
aS'example_mats_med/quad/p4/gauss-legendre/m0.txt'
p92
aS'example_mats_med/quad/p4/gauss-legendre/m3.txt'
p93
aS'example_mats_med/quad/p4/gauss-legendre/m6.txt'
p94
aS'example_mats_med/quad/p4/gauss-legendre/m132.txt'
p95
aS'example_mats_med/quad/p4/gauss-legendre/m460.txt'
p96
aS'example_mats_med/quad/p5/gauss-legendre-lobatto/m0.txt'
p97
aS'example_mats_med/quad/p5/gauss-legendre-lobatto/m3.txt'
p98
aS'example_mats_med/quad/p5/gauss-legendre-lobatto/m6.txt'
p99
aS'example_mats_med/quad/p5/gauss-legendre-lobatto/m132.txt'
p100
aS'example_mats_med/quad/p5/gauss-legendre-lobatto/m460.txt'
p101
aS'example_mats_med/quad/p5/gauss-legendre/m0.txt'
p102
aS'example_mats_med/quad/p5/gauss-legendre/m3.txt'
p103
aS'example_mats_med/quad/p5/gauss-legendre/m6.txt'
p104
aS'example_mats_med/quad/p5/gauss-legendre/m132.txt'
p105
aS'example_mats_med/quad/p5/gauss-legendre/m460.txt'
p106
aS'example_mats_med/quad/p6/gauss-legendre-lobatto/m0.txt'
p107
aS'example_mats_med/quad/p6/gauss-legendre-lobatto/m3.txt'
p108
aS'example_mats_med/quad/p6/gauss-legendre-lobatto/m6.txt'
p109
aS'example_mats_med/quad/p6/gauss-legendre-lobatto/m132.txt'
p110
aS'example_mats_med/quad/p6/gauss-legendre-lobatto/m460.txt'
p111
aS'example_mats_med/quad/p6/gauss-legendre/m0.txt'
p112
aS'example_mats_med/quad/p6/gauss-legendre/m3.txt'
p113
aS'example_mats_med/quad/p6/gauss-legendre/m6.txt'
p114
aS'example_mats_med/quad/p6/gauss-legendre/m132.txt'
p115
aS'example_mats_med/quad/p6/gauss-legendre/m460.txt'
p116
asg45
(lp117
F1.0018161376805321
aF0.9964832013111175
aF1.0037651582668257
aF1.003981591602461
aF1.0008227423300926
aF1.0005689819490478
aF1.0002063688605263
aF1.0034515889603797
aF0.9973425011437337
aF1.0018642803877702
aF1.021088833878191
aF1.000863564763359
aF0.9994080684819231
aF0.9966969283411459
aF1.0035820433577443
aF1.0001919405710489
aF1.0020436151687677
aF0.9951041680038002
aF0.9873028661802665
aF0.9856387840991875
aF0.9984697325857694
aF0.9997449493254584
aF0.9985157737688779
aF1.005419416305886
aF0.9939190307219948
aF0.989325833655208
aF1.0044494355257225
aF0.9979085694647872
aF1.0046177296909558
aF1.0076258357427121
aF0.9682640761011347
aF1.0033700546571884
aF1.005691804922125
aF0.9802856983709821
aF1.0075258124153212
aF1.0063958714832695
aF1.001050446154168
aF1.0012544449506038
aF1.1571490243030826
aF1.482941626229967
aF1.0023846230631872
aF0.9983674911796507
aF1.011960171700559
aF1.109921030678233
aF1.4315027403703098
aF0.9969592608147835
aF0.9961990473351034
aF1.0019954653820533
aF1.336496515967535
aF1.4924006411266393
aF1.0003043889392045
aF1.0075525480968166
aF1.0003395187321968
aF1.2776076297075964
aF1.450400547235636
asg47
(lp118
F1.9271666666666663
aF1.220333333333333
aF2.080479166666666
aF1.2086875
aF1.9244583333333336
aF2.929208333333333
aF2.62475
aF4.5751875
aF3.0965833333333332
aF4.58175
aF3.3074375000000003
aF2.6054791666666666
aF4.575416666666668
aF3.1599375000000003
aF4.577229166666669
aF4.016
aF4.618041666666665
aF8.114895833333332
aF6.981562499999998
aF8.979625
aF4.901104166666666
aF4.655937499999998
aF8.085020833333337
aF7.4346875
aF9.065166666666663
aF5.178
aF7.3464374999999995
aF12.730520833333332
aF19.517166666666665
aF15.427270833333333
aF7.426520833333336
aF7.356458333333336
aF12.635125000000002
aF20.570937500000007
aF15.607395833333328
aF6.257291666666667
aF10.947729166666667
aF18.384625000000003
aF31.947250000000015
aF25.013375
aF11.270125
aF10.8473125
aF18.190583333333333
aF33.214375
aF26.04575
aF7.440625
aF15.023645833333335
aF24.983729166666663
aF46.740020833333325
aF39.00685416666667
aF16.700125000000003
aF14.953562499999997
aF25.03543750000001
aF48.69125
aF40.171604166666654
assS'tet'
p119
(dp120
g3
(lp121
F1.180838784147749
aF1.0185706246482837
aF0.998844264663392
aF1.015068493150685
aF1.0395833333333335
aF1.0249966402365274
aF1.0233053221288513
aF0.9996587613035318
aF0.5503713578366025
aF0.8781465805301849
aF0.5298561440167162
aF0.4112189068757403
aF0.8367473618870268
aF0.36614196404393845
asg5
(lp122
I3
aI6
aI6
aI2
aI2
aI14
aI28
aI28
aI46
aI46
aI40
aI80
aI80
aI101
asg7
(lp123
F3.069
aF1.81
aF3.457
aF1.482
aF1.497
aF7.627
aF9.133
aF11.718
aF5.78
aF7.884
aF13.186
aF14.581
aF33.7
aF31.099
asg9
(lp124
I4
aI12
aI12
aI12
aI4
aI10
aI24
aI24
aI30
aI10
aI20
aI40
aI40
aI35
asg11
(lp125
F1.0
aF1.0
aF0.5
aF0.5
aF0.5
aF1.0
aF1.0
aF0.5
aF0.84
aF0.84
aF1.0
aF1.0
aF0.5
aF1.0
asg13
(lp126
I48
aI48
aI144
aI48
aI48
aI240
aI240
aI720
aI300
aI300
aI800
aI800
aI2400
aI2100
asg15
(lp127
I48
aI48
aI72
aI24
aI24
aI240
aI240
aI360
aI252
aI252
aI800
aI800
aI1200
aI2100
asg17
(lp128
F2.599
aF1.777
aF3.461
aF1.46
aF1.44
aF7.441
aF8.925
aF11.722
aF10.502
aF8.978
aF24.886
aF35.458
aF40.275
aF84.937
asg19
(lp129
F3.1433333333333326
aF1.8298749999999997
aF3.4867291666666667
aF1.5050416666666668
aF1.535270833333333
aF7.663520833333334
aF9.33885416666667
aF11.913749999999999
aF5.973708333333334
aF7.962479166666665
aF13.3110625
aF18.960541666666657
aF33.9205
aF31.447562500000004
asg21
(lp130
I12
aI4
aI12
aI4
aI12
aI24
aI10
aI30
aI10
aI30
aI40
aI20
aI60
aI60
asg23
(lp131
S'example_mats_med/tet/p1/shunn-ham/m0.txt'
p132
aS'example_mats_med/tet/p1/shunn-ham/m3.txt'
p133
aS'example_mats_med/tet/p1/shunn-ham/m6.txt'
p134
aS'example_mats_med/tet/p1/shunn-ham/m132.txt'
p135
aS'example_mats_med/tet/p1/shunn-ham/m460.txt'
p136
aS'example_mats_med/tet/p2/shunn-ham/m0.txt'
p137
aS'example_mats_med/tet/p2/shunn-ham/m3.txt'
p138
aS'example_mats_med/tet/p2/shunn-ham/m6.txt'
p139
aS'example_mats_med/tet/p2/shunn-ham/m132.txt'
p140
aS'example_mats_med/tet/p2/shunn-ham/m460.txt'
p141
aS'example_mats_med/tet/p3/shunn-ham/m0.txt'
p142
aS'example_mats_med/tet/p3/shunn-ham/m3.txt'
p143
aS'example_mats_med/tet/p3/shunn-ham/m6.txt'
p144
aS'example_mats_med/tet/p4/shunn-ham/m0.txt'
p145
asg45
(lp146
F0.9961837605144659
aF0.9931928174046766
aF0.9992596440320741
aF1.0076576513746114
aF0.9872859784035798
aF1.0120059974964581
aF1.0308829075789494
aF1.0035025900916708
aF0.5606483653996559
aF0.8822874898139618
aF0.5314990891168176
aF0.5312964282941355
aF0.8365238040679851
aF0.3696352091602979
asg47
(lp147
F3.155375
aF1.8424166666666668
aF3.4893125
aF1.4936041666666666
aF1.5550416666666662
aF7.5726041666666655
aF9.059083333333335
aF11.872166666666667
aF10.655
aF9.024812500000001
aF25.044375000000002
aF35.687312500000004
aF40.54935416666666
aF85.07729166666667
assS'hex'
p148
(dp149
g3
(lp150
F0.9943172033752368
aF0.9996912627354122
aF0.99578567128236
aF0.9978645515558267
aF1.0386120996441282
aF0.994178431087178
aF1.0021260763261401
aF0.9895124436992471
aF1.0019934554481513
aF1.0098619329388536
aF0.9973622684491337
aF1.0155132519983172
aF1.0059367396593675
aF0.992411214953271
aF1.0003495739567403
aF1.0077375513933302
aF0.9978634017524908
aF1.0102821756148856
aF1.0266090641424286
aF1.004304027891335
aF1.0041084042093125
aF0.98376378374431
aF1.0040203347365664
aF1.0294004382179145
aF1.0200439276882671
aF1.0132074168709644
aF1.0527418361059766
aF1.021550021302142
aF1.0978924908970442
aF1.0059951699690708
aF1.0156712583494412
aF1.0129964184135678
aF1.027696861126256
aF1.0967728537608505
aF1.0006762079374265
aF1.013984580519525
aF1.0422547742880024
aF1.0301237050635128
aF7.7984485604457685
aF7.094444383403104
aF1.0416086620262954
aF1.0368472524186314
aF1.0258214119092601
aF7.245744656124828
aF6.870748588020187
aF1.0290574637799121
aF1.069024830821493
aF1.0169178941884147
aF10.42607954253122
aF11.408942445645714
aF1.0932435664557165
aF1.0667842445620221
aF1.0155476759879714
aF10.255520831728273
aF10.748883890000723
asg5
(lp151
I2
aI2
aI4
aI2
aI2
aI1
aI3
aI6
aI6
aI6
aI3
aI3
aI6
aI8
aI8
aI1
aI4
aI6
aI14
aI14
aI4
aI4
aI8
aI16
aI16
aI1
aI4
aI8
aI22
aI22
aI5
aI5
aI10
aI24
aI24
aI1
aI6
aI8
aI32
aI32
aI6
aI6
aI12
aI36
aI36
aI1
aI5
aI10
aI44
aI44
aI7
aI7
aI14
aI48
aI48
asg7
(lp152
F5.774
aF3.238
aF6.616
aF3.271
aF5.837
aF13.662
aF18.854
aF30.098
aF26.64
aF23.04
aF16.637
aF19.311
aF31.008
aF26.547
aF22.893
aF35.295
aF41.566
aF69.172
aF74.616
aF65.102
aF41.793
aF40.414
aF68.92700000000002
aF77.519
aF66.412
aF58.687
aF76.887
aF131.877
aF180.611
aF142.463
aF83.02300000000002
aF76.931
aF131.946
aF184.849
aF143.544
aF89.039
aF128.85500000000002
aF223.337
aF2815.895
aF1937.06
aF154.882
aF128.286
aF222.077
aF2805.69
aF1942.766
aF126.43
aF198.25599999999997
aF343.523
aF7092.497
aF6814.915
aF338.243
aF199.606
aF343.11699999999996
aF7321.283
aF6842.589
asg9
(lp153
I8
aI24
aI24
aI24
aI8
aI27
aI54
aI54
aI81
aI27
aI27
aI54
aI54
aI81
aI27
aI64
aI96
aI96
aI192
aI64
aI64
aI96
aI96
aI192
aI64
aI125
aI150
aI150
aI375
aI125
aI125
aI150
aI150
aI375
aI125
aI216
aI216
aI216
aI648
aI216
aI216
aI216
aI216
aI648
aI216
aI343
aI294
aI294
aI1029
aI343
aI343
aI294
aI294
aI1029
aI343
asg11
(lp154
F0.25
aF0.25
aF0.08333333333333333
aF0.25
aF0.25
aF0.037037037037037035
aF0.1111111111111111
aF0.037037037037037035
aF0.09876543209876543
aF0.09876543209876543
aF0.1111111111111111
aF0.1111111111111111
aF0.037037037037037035
aF0.09876543209876543
aF0.09876543209876543
aF0.015625
aF0.0625
aF0.020833333333333332
aF0.0546875
aF0.0546875
aF0.0625
aF0.0625
aF0.020833333333333332
aF0.0625
aF0.0625
aF0.008
aF0.04
aF0.013333333333333334
aF0.0352
aF0.0352
aF0.04
aF0.04
aF0.013333333333333334
aF0.0384
aF0.0384
aF0.004629629629629629
aF0.027777777777777776
aF0.009259259259259259
aF0.024691358024691357
aF0.024691358024691357
aF0.027777777777777776
aF0.027777777777777776
aF0.009259259259259259
aF0.027777777777777776
aF0.027777777777777776
aF0.0029154518950437317
aF0.02040816326530612
aF0.006802721088435374
aF0.018325697625989172
aF0.018325697625989172
aF0.02040816326530612
aF0.02040816326530612
aF0.006802721088435374
aF0.019991670137442734
aF0.019991670137442734
asg13
(lp155
I192
aI192
aI576
aI192
aI192
aI1458
aI1458
aI4374
aI2187
aI2187
aI1458
aI1458
aI4374
aI2187
aI2187
aI6144
aI6144
aI18432
aI12288
aI12288
aI6144
aI6144
aI18432
aI12288
aI12288
aI18750
aI18750
aI56250
aI46875
aI46875
aI18750
aI18750
aI56250
aI46875
aI46875
aI46656
aI46656
aI139968
aI139968
aI139968
aI46656
aI46656
aI139968
aI139968
aI139968
aI100842
aI100842
aI302526
aI352947
aI352947
aI100842
aI100842
aI302526
aI352947
aI352947
asg15
(lp156
I48
aI48
aI48
aI48
aI48
aI54
aI162
aI162
aI216
aI216
aI162
aI162
aI162
aI216
aI216
aI96
aI384
aI384
aI672
aI672
aI384
aI384
aI384
aI768
aI768
aI150
aI750
aI750
aI1650
aI1650
aI750
aI750
aI750
aI1800
aI1800
aI216
aI1296
aI1296
aI3456
aI3456
aI1296
aI1296
aI1296
aI3888
aI3888
aI294
aI2058
aI2058
aI6468
aI6468
aI2058
aI2058
aI2058
aI7056
aI7056
asg17
(lp157
F5.807
aF3.239
aF6.644
aF3.278
aF5.62
aF13.742
aF18.814
aF30.417
aF26.587
aF22.815000000000055
aF16.681
aF19.016
aF30.825
aF26.75
aF22.885
aF35.024
aF41.655
aF68.468
aF72.682
aF64.823
aF41.622
aF41.081
aF68.651
aF75.30499999999995
aF65.107
aF57.922
aF73.035
aF129.095
aF164.50699999999995
aF141.614
aF81.742
aF75.944
aF128.39
aF168.539
aF143.447
aF87.811
aF123.631
aF216.806
aF361.084
aF273.039
aF148.695
aF123.727
aF216.487
aF387.219
aF282.759
aF122.86
aF185.455
aF337.808
aF680.265
aF597.331
aF309.394
aF187.11
aF337.864
aF713.887
aF636.586
asg19
(lp158
F5.884104166666667
aF3.324062499999999
aF6.723395833333334
aF3.450437499999999
aF5.859833333333332
aF13.8083125
aF19.641354166666662
aF31.128333333333334
aF27.348645833333332
aF23.297875
aF16.841708333333337
aF19.927041666666664
aF31.429249999999996
aF27.506083333333333
aF23.096625000000003
aF35.79933333333333
aF42.264520833333336
aF69.57012499999998
aF75.10414583333336
aF66.14762499999999
aF42.511
aF41.78047916666668
aF69.79172916666666
aF77.94091666666668
aF66.88364583333335
aF59.196125
aF77.27102083333332
aF132.2023333333333
aF183.69185416666664
aF142.68504166666665
aF83.28033333333333
aF77.25631249999999
aF132.2764166666667
aF186.8902708333333
aF143.85268749999997
aF89.2887291666667
aF129.34002083333334
aF223.921875
aF2890.7696666666657
aF1968.2483749999994
aF155.66554166666668
aF128.7382916666667
aF222.8309166666667
aF2888.236770833333
aF1970.1889583333334
aF126.77737500000006
aF199.10937500000003
aF344.3026458333334
aF7230.0233333333335
aF6902.470187500002
aF340.64174999999994
aF204.74974999999998
aF344.3222500000001
aF7444.7882500000005
aF6973.281020833329
asg21
(lp159
I24
aI8
aI24
aI8
aI24
aI54
aI27
aI81
aI27
aI81
aI54
aI27
aI81
aI27
aI81
aI96
aI64
aI192
aI64
aI192
aI96
aI64
aI192
aI64
aI192
aI150
aI125
aI375
aI125
aI375
aI150
aI125
aI375
aI125
aI375
aI216
aI216
aI648
aI216
aI648
aI216
aI216
aI648
aI216
aI648
aI294
aI343
aI1029
aI343
aI1029
aI294
aI343
aI1029
aI343
aI1029
asg23
(lp160
S'example_mats_med/hex/p1/gauss-legendre/m0.txt'
p161
aS'example_mats_med/hex/p1/gauss-legendre/m3.txt'
p162
aS'example_mats_med/hex/p1/gauss-legendre/m6.txt'
p163
aS'example_mats_med/hex/p1/gauss-legendre/m132.txt'
p164
aS'example_mats_med/hex/p1/gauss-legendre/m460.txt'
p165
aS'example_mats_med/hex/p2/gauss-legendre-lobatto/m0.txt'
p166
aS'example_mats_med/hex/p2/gauss-legendre-lobatto/m3.txt'
p167
aS'example_mats_med/hex/p2/gauss-legendre-lobatto/m6.txt'
p168
aS'example_mats_med/hex/p2/gauss-legendre-lobatto/m132.txt'
p169
aS'example_mats_med/hex/p2/gauss-legendre-lobatto/m460.txt'
p170
aS'example_mats_med/hex/p2/gauss-legendre/m0.txt'
p171
aS'example_mats_med/hex/p2/gauss-legendre/m3.txt'
p172
aS'example_mats_med/hex/p2/gauss-legendre/m6.txt'
p173
aS'example_mats_med/hex/p2/gauss-legendre/m132.txt'
p174
aS'example_mats_med/hex/p2/gauss-legendre/m460.txt'
p175
aS'example_mats_med/hex/p3/gauss-legendre-lobatto/m0.txt'
p176
aS'example_mats_med/hex/p3/gauss-legendre-lobatto/m3.txt'
p177
aS'example_mats_med/hex/p3/gauss-legendre-lobatto/m6.txt'
p178
aS'example_mats_med/hex/p3/gauss-legendre-lobatto/m132.txt'
p179
aS'example_mats_med/hex/p3/gauss-legendre-lobatto/m460.txt'
p180
aS'example_mats_med/hex/p3/gauss-legendre/m0.txt'
p181
aS'example_mats_med/hex/p3/gauss-legendre/m3.txt'
p182
aS'example_mats_med/hex/p3/gauss-legendre/m6.txt'
p183
aS'example_mats_med/hex/p3/gauss-legendre/m132.txt'
p184
aS'example_mats_med/hex/p3/gauss-legendre/m460.txt'
p185
aS'example_mats_med/hex/p4/gauss-legendre-lobatto/m0.txt'
p186
aS'example_mats_med/hex/p4/gauss-legendre-lobatto/m3.txt'
p187
aS'example_mats_med/hex/p4/gauss-legendre-lobatto/m6.txt'
p188
aS'example_mats_med/hex/p4/gauss-legendre-lobatto/m132.txt'
p189
aS'example_mats_med/hex/p4/gauss-legendre-lobatto/m460.txt'
p190
aS'example_mats_med/hex/p4/gauss-legendre/m0.txt'
p191
aS'example_mats_med/hex/p4/gauss-legendre/m3.txt'
p192
aS'example_mats_med/hex/p4/gauss-legendre/m6.txt'
p193
aS'example_mats_med/hex/p4/gauss-legendre/m132.txt'
p194
aS'example_mats_med/hex/p4/gauss-legendre/m460.txt'
p195
aS'example_mats_med/hex/p5/gauss-legendre-lobatto/m0.txt'
p196
aS'example_mats_med/hex/p5/gauss-legendre-lobatto/m3.txt'
p197
aS'example_mats_med/hex/p5/gauss-legendre-lobatto/m6.txt'
p198
aS'example_mats_med/hex/p5/gauss-legendre-lobatto/m132.txt'
p199
aS'example_mats_med/hex/p5/gauss-legendre-lobatto/m460.txt'
p200
aS'example_mats_med/hex/p5/gauss-legendre/m0.txt'
p201
aS'example_mats_med/hex/p5/gauss-legendre/m3.txt'
p202
aS'example_mats_med/hex/p5/gauss-legendre/m6.txt'
p203
aS'example_mats_med/hex/p5/gauss-legendre/m132.txt'
p204
aS'example_mats_med/hex/p5/gauss-legendre/m460.txt'
p205
aS'example_mats_med/hex/p6/gauss-legendre-lobatto/m0.txt'
p206
aS'example_mats_med/hex/p6/gauss-legendre-lobatto/m3.txt'
p207
aS'example_mats_med/hex/p6/gauss-legendre-lobatto/m6.txt'
p208
aS'example_mats_med/hex/p6/gauss-legendre-lobatto/m132.txt'
p209
aS'example_mats_med/hex/p6/gauss-legendre-lobatto/m460.txt'
p210
aS'example_mats_med/hex/p6/gauss-legendre/m0.txt'
p211
aS'example_mats_med/hex/p6/gauss-legendre/m3.txt'
p212
aS'example_mats_med/hex/p6/gauss-legendre/m6.txt'
p213
aS'example_mats_med/hex/p6/gauss-legendre/m132.txt'
p214
aS'example_mats_med/hex/p6/gauss-legendre/m460.txt'
p215
asg45
(lp216
F1.000868203209163
aF1.0028346238938053
aF0.9996499770781448
aF1.0157370212504977
aF1.0004268153881173
aF0.99669022556391
aF0.9933536544890753
aF0.9961524896811917
aF0.9971818040252345
aF1.0111348908617948
aF0.9961357323994687
aF1.0097278215696892
aF0.998926650002483
aF0.9959589604789802
aF0.9957382140736839
aF1.0054333261949984
aF1.005827631222102
aF1.0097016279238527
aF1.0268932156094652
aF1.0120499209188083
aF0.9957544987673406
aF1.001169675306522
aF1.0110417734924395
aF1.0274129552165356
aF1.014298496315192
aF1.008532768457436
aF1.0493795689207854
aF1.0211255128990935
aF1.1086096074204297
aF1.0054739006834814
aF1.0154574778375076
aF1.0132506951184326
aF1.0278377014187092
aF1.0997740927390558
aF1.000877244223951
aF1.0138631301250742
aF1.0431403959427163
aF1.0298061982006979
aF7.9785799505416035
aF7.187379761388166
aF1.0411647641212478
aF1.0365149800939155
aF1.0263366245997791
aF7.431372751872943
aF6.952530446016162
aF1.0282284411391145
aF1.0676511395651755
aF1.016466902990044
aF10.613690705438405
aF11.528588810706733
aF1.0971135255368296
aF1.0633363180647515
aF1.0159198061379688
aF10.406584617642658
aF10.921974644657087
asg47
(lp217
F5.878999999999999
aF3.3146666666666658
aF6.7257500000000014
aF3.396979166666668
aF5.857333333333333
aF13.854166666666664
aF19.77277083333333
aF31.24856250000001
aF27.425937500000003
aF23.041312499999993
aF16.907041666666668
aF19.735062499999998
aF31.46302083333333
aF27.617687500000006
aF23.19547916666666
aF35.60587499999999
aF42.019645833333335
aF68.90166666666666
aF73.13725000000001
aF65.36004166666665
aF42.69225000000001
aF41.73166666666667
aF69.02952083333335
aF75.86133333333333
aF65.94079166666667
aF58.69529166666667
aF73.63495833333333
aF129.46727083333332
aF165.6957083333333
aF141.90825
aF82.012625
aF76.24599999999998
aF128.69387500000002
aF169.9351458333333
aF143.72660416666665
aF88.06783333333335
aF123.991
aF217.44079166666668
aF362.3163124999999
aF273.8478333333333
aF149.51095833333332
aF124.20302083333335
aF217.11289583333325
aF388.65454166666655
aF283.37725
aF123.2968958333333
aF186.4929166666667
aF338.72489583333316
aF681.1978541666665
aF598.7263749999998
aF310.48906249999993
aF192.55408333333332
aF338.92660416666666
aF715.3920833333333
aF638.4633958333335
ass.