
bin/benchmark_gimmik:     file format elf64-x86-64


Disassembly of section .init:

0000000000000958 <_init>:
 958:	48 83 ec 08          	sub    rsp,0x8
 95c:	48 8b 05 85 16 21 00 	mov    rax,QWORD PTR [rip+0x211685]        # 211fe8 <__gmon_start__>
 963:	48 85 c0             	test   rax,rax
 966:	74 02                	je     96a <_init+0x12>
 968:	ff d0                	call   rax
 96a:	48 83 c4 08          	add    rsp,0x8
 96e:	c3                   	ret    

Disassembly of section .plt:

0000000000000970 <.plt>:
 970:	ff 35 ba 15 21 00    	push   QWORD PTR [rip+0x2115ba]        # 211f30 <_GLOBAL_OFFSET_TABLE_+0x8>
 976:	ff 25 bc 15 21 00    	jmp    QWORD PTR [rip+0x2115bc]        # 211f38 <_GLOBAL_OFFSET_TABLE_+0x10>
 97c:	0f 1f 40 00          	nop    DWORD PTR [rax+0x0]

0000000000000980 <getenv@plt>:
 980:	ff 25 ba 15 21 00    	jmp    QWORD PTR [rip+0x2115ba]        # 211f40 <getenv@GLIBC_2.2.5>
 986:	68 00 00 00 00       	push   0x0
 98b:	e9 e0 ff ff ff       	jmp    970 <.plt>

0000000000000990 <free@plt>:
 990:	ff 25 b2 15 21 00    	jmp    QWORD PTR [rip+0x2115b2]        # 211f48 <free@GLIBC_2.2.5>
 996:	68 01 00 00 00       	push   0x1
 99b:	e9 d0 ff ff ff       	jmp    970 <.plt>

00000000000009a0 <qsort@plt>:
 9a0:	ff 25 aa 15 21 00    	jmp    QWORD PTR [rip+0x2115aa]        # 211f50 <qsort@GLIBC_2.2.5>
 9a6:	68 02 00 00 00       	push   0x2
 9ab:	e9 c0 ff ff ff       	jmp    970 <.plt>

00000000000009b0 <strtod@plt>:
 9b0:	ff 25 a2 15 21 00    	jmp    QWORD PTR [rip+0x2115a2]        # 211f58 <strtod@GLIBC_2.2.5>
 9b6:	68 03 00 00 00       	push   0x3
 9bb:	e9 b0 ff ff ff       	jmp    970 <.plt>

00000000000009c0 <fclose@plt>:
 9c0:	ff 25 9a 15 21 00    	jmp    QWORD PTR [rip+0x21159a]        # 211f60 <fclose@GLIBC_2.2.5>
 9c6:	68 04 00 00 00       	push   0x4
 9cb:	e9 a0 ff ff ff       	jmp    970 <.plt>

00000000000009d0 <__stack_chk_fail@plt>:
 9d0:	ff 25 92 15 21 00    	jmp    QWORD PTR [rip+0x211592]        # 211f68 <__stack_chk_fail@GLIBC_2.4>
 9d6:	68 05 00 00 00       	push   0x5
 9db:	e9 90 ff ff ff       	jmp    970 <.plt>

00000000000009e0 <rewind@plt>:
 9e0:	ff 25 8a 15 21 00    	jmp    QWORD PTR [rip+0x21158a]        # 211f70 <rewind@GLIBC_2.2.5>
 9e6:	68 06 00 00 00       	push   0x6
 9eb:	e9 80 ff ff ff       	jmp    970 <.plt>

00000000000009f0 <gettimeofday@plt>:
 9f0:	ff 25 82 15 21 00    	jmp    QWORD PTR [rip+0x211582]        # 211f78 <gettimeofday@GLIBC_2.2.5>
 9f6:	68 07 00 00 00       	push   0x7
 9fb:	e9 70 ff ff ff       	jmp    970 <.plt>

0000000000000a00 <fscanf@plt>:
 a00:	ff 25 7a 15 21 00    	jmp    QWORD PTR [rip+0x21157a]        # 211f80 <fscanf@GLIBC_2.2.5>
 a06:	68 08 00 00 00       	push   0x8
 a0b:	e9 60 ff ff ff       	jmp    970 <.plt>

0000000000000a10 <srand@plt>:
 a10:	ff 25 72 15 21 00    	jmp    QWORD PTR [rip+0x211572]        # 211f88 <srand@GLIBC_2.2.5>
 a16:	68 09 00 00 00       	push   0x9
 a1b:	e9 50 ff ff ff       	jmp    970 <.plt>

0000000000000a20 <calloc@plt>:
 a20:	ff 25 6a 15 21 00    	jmp    QWORD PTR [rip+0x21156a]        # 211f90 <calloc@GLIBC_2.2.5>
 a26:	68 0a 00 00 00       	push   0xa
 a2b:	e9 40 ff ff ff       	jmp    970 <.plt>

0000000000000a30 <strtol@plt>:
 a30:	ff 25 62 15 21 00    	jmp    QWORD PTR [rip+0x211562]        # 211f98 <strtol@GLIBC_2.2.5>
 a36:	68 0b 00 00 00       	push   0xb
 a3b:	e9 30 ff ff ff       	jmp    970 <.plt>

0000000000000a40 <_IO_getc@plt>:
 a40:	ff 25 5a 15 21 00    	jmp    QWORD PTR [rip+0x21155a]        # 211fa0 <_IO_getc@GLIBC_2.2.5>
 a46:	68 0c 00 00 00       	push   0xc
 a4b:	e9 20 ff ff ff       	jmp    970 <.plt>

0000000000000a50 <__printf_chk@plt>:
 a50:	ff 25 52 15 21 00    	jmp    QWORD PTR [rip+0x211552]        # 211fa8 <__printf_chk@GLIBC_2.3.4>
 a56:	68 0d 00 00 00       	push   0xd
 a5b:	e9 10 ff ff ff       	jmp    970 <.plt>

0000000000000a60 <fopen@plt>:
 a60:	ff 25 4a 15 21 00    	jmp    QWORD PTR [rip+0x21154a]        # 211fb0 <fopen@GLIBC_2.2.5>
 a66:	68 0e 00 00 00       	push   0xe
 a6b:	e9 00 ff ff ff       	jmp    970 <.plt>

0000000000000a70 <exit@plt>:
 a70:	ff 25 42 15 21 00    	jmp    QWORD PTR [rip+0x211542]        # 211fb8 <exit@GLIBC_2.2.5>
 a76:	68 0f 00 00 00       	push   0xf
 a7b:	e9 f0 fe ff ff       	jmp    970 <.plt>

0000000000000a80 <__fprintf_chk@plt>:
 a80:	ff 25 3a 15 21 00    	jmp    QWORD PTR [rip+0x21153a]        # 211fc0 <__fprintf_chk@GLIBC_2.3.4>
 a86:	68 10 00 00 00       	push   0x10
 a8b:	e9 e0 fe ff ff       	jmp    970 <.plt>

0000000000000a90 <aligned_alloc@plt>:
 a90:	ff 25 32 15 21 00    	jmp    QWORD PTR [rip+0x211532]        # 211fc8 <aligned_alloc@GLIBC_2.16>
 a96:	68 11 00 00 00       	push   0x11
 a9b:	e9 d0 fe ff ff       	jmp    970 <.plt>

0000000000000aa0 <rand@plt>:
 aa0:	ff 25 2a 15 21 00    	jmp    QWORD PTR [rip+0x21152a]        # 211fd0 <rand@GLIBC_2.2.5>
 aa6:	68 12 00 00 00       	push   0x12
 aab:	e9 c0 fe ff ff       	jmp    970 <.plt>

Disassembly of section .plt.got:

0000000000000ab0 <__cxa_finalize@plt>:
 ab0:	ff 25 42 15 21 00    	jmp    QWORD PTR [rip+0x211542]        # 211ff8 <__cxa_finalize@GLIBC_2.2.5>
 ab6:	66 90                	xchg   ax,ax

Disassembly of section .text:

0000000000000ac0 <main>:
#include <stdbool.h>
#include "common_gimmik.h"

#define DEBUG 0

int main(int argc, char **argv) {
     ac0:	41 56                	push   r14
     ac2:	41 55                	push   r13
     ac4:	41 54                	push   r12
     ac6:	55                   	push   rbp
     ac7:	53                   	push   rbx
     ac8:	48 83 ec 30          	sub    rsp,0x30
     acc:	64 48 8b 04 25 28 00 	mov    rax,QWORD PTR fs:0x28
     ad3:	00 00 
     ad5:	48 89 44 24 28       	mov    QWORD PTR [rsp+0x28],rax
     ada:	31 c0                	xor    eax,eax
    if (argc != 3) {
     adc:	83 ff 03             	cmp    edi,0x3
     adf:	0f 85 61 02 00 00    	jne    d46 <main+0x286>
        printf("Expected 2 arguments: size_of_B, seed_of_B");
        exit(1);
    }

    // Set values for alpha and beta from environment
    double alpha = getenv("ALPHA") ? atof(getenv("ALPHA")) : 1.0;
     ae5:	48 8d 3d 56 f5 00 00 	lea    rdi,[rip+0xf556]        # 10042 <_IO_stdin_used+0x142>
     aec:	48 89 f5             	mov    rbp,rsi
     aef:	e8 8c fe ff ff       	call   980 <getenv@plt>
     af4:	48 8b 1d a5 f5 00 00 	mov    rbx,QWORD PTR [rip+0xf5a5]        # 100a0 <_IO_stdin_used+0x1a0>
     afb:	48 85 c0             	test   rax,rax
     afe:	74 1b                	je     b1b <main+0x5b>
     b00:	48 8d 3d 3b f5 00 00 	lea    rdi,[rip+0xf53b]        # 10042 <_IO_stdin_used+0x142>
     b07:	e8 74 fe ff ff       	call   980 <getenv@plt>

#ifdef __USE_EXTERN_INLINES
__extern_inline double
__NTH (atof (const char *__nptr))
{
  return strtod (__nptr, (char **) NULL);
     b0c:	31 f6                	xor    esi,esi
     b0e:	48 89 c7             	mov    rdi,rax
     b11:	e8 9a fe ff ff       	call   9b0 <strtod@plt>
     b16:	c4 e1 f9 7e c3       	vmovq  rbx,xmm0
    double beta = getenv("BETA") ? atof(getenv("BETA")) : 0.0;
     b1b:	48 8d 3d 26 f5 00 00 	lea    rdi,[rip+0xf526]        # 10048 <_IO_stdin_used+0x148>
     b22:	e8 59 fe ff ff       	call   980 <getenv@plt>
     b27:	62 f1 75 48 ef c9    	vpxord zmm1,zmm1,zmm1
     b2d:	48 85 c0             	test   rax,rax
     b30:	74 1a                	je     b4c <main+0x8c>
     b32:	48 8d 3d 0f f5 00 00 	lea    rdi,[rip+0xf50f]        # 10048 <_IO_stdin_used+0x148>
     b39:	e8 42 fe ff ff       	call   980 <getenv@plt>
     b3e:	31 f6                	xor    esi,esi
     b40:	48 89 c7             	mov    rdi,rax
     b43:	e8 68 fe ff ff       	call   9b0 <strtod@plt>
     b48:	c5 f9 28 c8          	vmovapd xmm1,xmm0
}

__fortify_function int
printf (const char *__restrict __fmt, ...)
{
  return __printf_chk (__USE_FORTIFY_LEVEL - 1, __fmt, __va_arg_pack ());
     b4c:	c4 e1 f9 6e c3       	vmovq  xmm0,rbx
     b51:	bf 01 00 00 00       	mov    edi,0x1
     b56:	b8 02 00 00 00       	mov    eax,0x2
     b5b:	48 8d 35 eb f4 00 00 	lea    rsi,[rip+0xf4eb]        # 1004d <_IO_stdin_used+0x14d>
     b62:	e8 e9 fe ff ff       	call   a50 <__printf_chk@plt>
    int m = 0;
    int k = 0;
    double *a_d = NULL;

    // Load A matrix and sizes from file.
    load_matrix(a_path, &a_d, &k, &m);
     b67:	48 8d 4c 24 18       	lea    rcx,[rsp+0x18]
     b6c:	48 8d 54 24 1c       	lea    rdx,[rsp+0x1c]
    int m = 0;
     b71:	c7 44 24 18 00 00 00 	mov    DWORD PTR [rsp+0x18],0x0
     b78:	00 
    load_matrix(a_path, &a_d, &k, &m);
     b79:	48 8d 74 24 20       	lea    rsi,[rsp+0x20]
     b7e:	48 8d 3d b3 f3 00 00 	lea    rdi,[rip+0xf3b3]        # ff38 <_IO_stdin_used+0x38>
    int k = 0;
     b85:	c7 44 24 1c 00 00 00 	mov    DWORD PTR [rsp+0x1c],0x0
     b8c:	00 
    double *a_d = NULL;
     b8d:	48 c7 44 24 20 00 00 	mov    QWORD PTR [rsp+0x20],0x0
     b94:	00 00 
    load_matrix(a_path, &a_d, &k, &m);
     b96:	e8 25 ec 00 00       	call   f7c0 <load_matrix>

#ifdef __USE_EXTERN_INLINES
__extern_inline int
__NTH (atoi (const char *__nptr))
{
  return (int) strtol (__nptr, (char **) NULL, 10);
     b9b:	48 8b 7d 08          	mov    rdi,QWORD PTR [rbp+0x8]
     b9f:	31 f6                	xor    esi,esi
     ba1:	ba 0a 00 00 00       	mov    edx,0xa
     ba6:	e8 85 fe ff ff       	call   a30 <strtol@plt>

    int n = (atoi(argv[1]) / BLOCK_ALIGNMENT) * BLOCK_ALIGNMENT;
     bab:	ba ab aa aa 2a       	mov    edx,0x2aaaaaab
     bb0:	48 8b 7d 10          	mov    rdi,QWORD PTR [rbp+0x10]
     bb4:	31 f6                	xor    esi,esi
     bb6:	48 89 c1             	mov    rcx,rax
     bb9:	f7 ea                	imul   edx
     bbb:	c1 f9 1f             	sar    ecx,0x1f
     bbe:	c1 fa 03             	sar    edx,0x3
     bc1:	29 ca                	sub    edx,ecx
     bc3:	8d 1c 52             	lea    ebx,[rdx+rdx*2]
     bc6:	ba 0a 00 00 00       	mov    edx,0xa
     bcb:	e8 60 fe ff ff       	call   a30 <strtol@plt>
    int seed = (atoi(argv[2]));

    int lda = k;
     bd0:	8b 4c 24 1c          	mov    ecx,DWORD PTR [rsp+0x1c]
    int n = (atoi(argv[1]) / BLOCK_ALIGNMENT) * BLOCK_ALIGNMENT;
     bd4:	c1 e3 04             	shl    ebx,0x4
     bd7:	8b 54 24 18          	mov    edx,DWORD PTR [rsp+0x18]
     bdb:	41 89 d9             	mov    r9d,ebx
     bde:	49 89 c5             	mov    r13,rax
     be1:	bf 01 00 00 00       	mov    edi,0x1
     be6:	31 c0                	xor    eax,eax
     be8:	41 89 c8             	mov    r8d,ecx
     beb:	48 8d 35 6e f3 00 00 	lea    rsi,[rip+0xf36e]        # ff60 <_IO_stdin_used+0x60>
     bf2:	e8 59 fe ff ff       	call   a50 <__printf_chk@plt>
     bf7:	8b 54 24 18          	mov    edx,DWORD PTR [rsp+0x18]
     bfb:	89 d9                	mov    ecx,ebx
     bfd:	bf 01 00 00 00       	mov    edi,0x1
     c02:	48 8d 35 5b f4 00 00 	lea    rsi,[rip+0xf45b]        # 10064 <_IO_stdin_used+0x164>
     c09:	31 c0                	xor    eax,eax
     c0b:	e8 40 fe ff ff       	call   a50 <__printf_chk@plt>
    int ldc = n;

    printf("Input arrays: A (%d, %d), B (%d, %d).\n", m, k, k, n);
    printf("Output array: C (%d, %d).\n", m, n);

    int b_size = k * n;
     c10:	44 8b 74 24 1c       	mov    r14d,DWORD PTR [rsp+0x1c]
    int c_size = m * n;
     c15:	44 8b 64 24 18       	mov    r12d,DWORD PTR [rsp+0x18]

    // Allocate memory according to sizes given.
    double *b_d = (double *) aligned_alloc(BLOCK_ALIGNMENT * sizeof(double), b_size * sizeof(double));
     c1a:	bf 80 01 00 00       	mov    edi,0x180
    int b_size = k * n;
     c1f:	44 0f af f3          	imul   r14d,ebx
    int c_size = m * n;
     c23:	44 0f af e3          	imul   r12d,ebx
    double *b_d = (double *) aligned_alloc(BLOCK_ALIGNMENT * sizeof(double), b_size * sizeof(double));
     c27:	49 63 f6             	movsxd rsi,r14d
     c2a:	48 c1 e6 03          	shl    rsi,0x3
     c2e:	e8 5d fe ff ff       	call   a90 <aligned_alloc@plt>
     c33:	48 8d 15 4e f3 00 00 	lea    rdx,[rip+0xf34e]        # ff88 <_IO_stdin_used+0x88>
     c3a:	bf 01 00 00 00       	mov    edi,0x1
     c3f:	48 8d 35 39 f4 00 00 	lea    rsi,[rip+0xf439]        # 1007f <_IO_stdin_used+0x17f>
     c46:	48 89 c5             	mov    rbp,rax
     c49:	31 c0                	xor    eax,eax
     c4b:	e8 00 fe ff ff       	call   a50 <__printf_chk@plt>

    // Fill B matrix with random values.
    printf("%s", "Randomly generating B matrix...\n");
    fill_B_matrix(b_size, b_d, seed);
     c50:	44 89 ea             	mov    edx,r13d
     c53:	48 89 ee             	mov    rsi,rbp
     c56:	44 89 f7             	mov    edi,r14d
     c59:	e8 b2 e9 00 00       	call   f610 <fill_B_matrix>
     c5e:	48 8d 15 1d f4 00 00 	lea    rdx,[rip+0xf41d]        # 10082 <_IO_stdin_used+0x182>
     c65:	48 8d 35 13 f4 00 00 	lea    rsi,[rip+0xf413]        # 1007f <_IO_stdin_used+0x17f>
     c6c:	31 c0                	xor    eax,eax
     c6e:	bf 01 00 00 00       	mov    edi,0x1
     c73:	e8 d8 fd ff ff       	call   a50 <__printf_chk@plt>

    printf("%s", "Running gimmik MM...\n");
    double *c_d = (double *) calloc(c_size, sizeof(double));
     c78:	49 63 fc             	movsxd rdi,r12d
     c7b:	be 08 00 00 00       	mov    esi,0x8
     c80:	e8 9b fd ff ff       	call   a20 <calloc@plt>

    struct benchmark_data b_data = benchmark_gimmik(b_d, c_d, n, ldb, ldc);
     c85:	41 89 d8             	mov    r8d,ebx
     c88:	89 d9                	mov    ecx,ebx
     c8a:	89 da                	mov    edx,ebx
     c8c:	48 89 c6             	mov    rsi,rax
     c8f:	48 89 ef             	mov    rdi,rbp
    double *c_d = (double *) calloc(c_size, sizeof(double));
     c92:	49 89 c4             	mov    r12,rax
    struct benchmark_data b_data = benchmark_gimmik(b_d, c_d, n, ldb, ldc);
     c95:	e8 26 f0 00 00       	call   fcc0 <benchmark_gimmik>
     c9a:	48 8d 15 f7 f3 00 00 	lea    rdx,[rip+0xf3f7]        # 10098 <_IO_stdin_used+0x198>
     ca1:	48 8d 35 d7 f3 00 00 	lea    rsi,[rip+0xf3d7]        # 1007f <_IO_stdin_used+0x17f>
     ca8:	31 c0                	xor    eax,eax
     caa:	bf 01 00 00 00       	mov    edi,0x1
     caf:	c5 fb 11 0c 24       	vmovsd QWORD PTR [rsp],xmm1
     cb4:	c5 fb 11 44 24 08    	vmovsd QWORD PTR [rsp+0x8],xmm0
     cba:	e8 91 fd ff ff       	call   a50 <__printf_chk@plt>
     cbf:	48 8d 35 ea f2 00 00 	lea    rsi,[rip+0xf2ea]        # ffb0 <_IO_stdin_used+0xb0>
     cc6:	bf 01 00 00 00       	mov    edi,0x1
     ccb:	31 c0                	xor    eax,eax
     ccd:	e8 7e fd ff ff       	call   a50 <__printf_chk@plt>
     cd2:	bf 01 00 00 00       	mov    edi,0x1
     cd7:	b8 01 00 00 00       	mov    eax,0x1
     cdc:	c5 fb 10 44 24 08    	vmovsd xmm0,QWORD PTR [rsp+0x8]
     ce2:	48 8d 35 0f f3 00 00 	lea    rsi,[rip+0xf30f]        # fff8 <_IO_stdin_used+0xf8>
     ce9:	e8 62 fd ff ff       	call   a50 <__printf_chk@plt>
     cee:	bf 01 00 00 00       	mov    edi,0x1
     cf3:	b8 01 00 00 00       	mov    eax,0x1
     cf8:	c5 fb 10 0c 24       	vmovsd xmm1,QWORD PTR [rsp]
     cfd:	48 8d 35 1c f3 00 00 	lea    rsi,[rip+0xf31c]        # 10020 <_IO_stdin_used+0x120>
     d04:	c5 f9 28 c1          	vmovapd xmm0,xmm1
     d08:	e8 43 fd ff ff       	call   a50 <__printf_chk@plt>
    printf("%s", "Done.\n");
    printf("---------------------------------------------------------------\n");
    printf("gimmik best execution time: %.17g\n", b_data.fastest_time);
    printf("gimmik avg execution time: %.17g\n", b_data.avg_iqr_time);

    free(a_d);
     d0d:	48 8b 7c 24 20       	mov    rdi,QWORD PTR [rsp+0x20]
     d12:	e8 79 fc ff ff       	call   990 <free@plt>
    free(b_d);
     d17:	48 89 ef             	mov    rdi,rbp
     d1a:	e8 71 fc ff ff       	call   990 <free@plt>
    free(c_d);
     d1f:	4c 89 e7             	mov    rdi,r12
     d22:	e8 69 fc ff ff       	call   990 <free@plt>
}
     d27:	31 c0                	xor    eax,eax
     d29:	48 8b 5c 24 28       	mov    rbx,QWORD PTR [rsp+0x28]
     d2e:	64 48 33 1c 25 28 00 	xor    rbx,QWORD PTR fs:0x28
     d35:	00 00 
     d37:	75 28                	jne    d61 <main+0x2a1>
     d39:	48 83 c4 30          	add    rsp,0x30
     d3d:	5b                   	pop    rbx
     d3e:	5d                   	pop    rbp
     d3f:	41 5c                	pop    r12
     d41:	41 5d                	pop    r13
     d43:	41 5e                	pop    r14
     d45:	c3                   	ret    
     d46:	bf 01 00 00 00       	mov    edi,0x1
     d4b:	48 8d 35 b6 f1 00 00 	lea    rsi,[rip+0xf1b6]        # ff08 <_IO_stdin_used+0x8>
     d52:	e8 f9 fc ff ff       	call   a50 <__printf_chk@plt>
        exit(1);
     d57:	bf 01 00 00 00       	mov    edi,0x1
     d5c:	e8 0f fd ff ff       	call   a70 <exit@plt>
}
     d61:	e8 6a fc ff ff       	call   9d0 <__stack_chk_fail@plt>
     d66:	66 2e 0f 1f 84 00 00 	nop    WORD PTR cs:[rax+rax*1+0x0]
     d6d:	00 00 00 

0000000000000d70 <_start>:
     d70:	31 ed                	xor    ebp,ebp
     d72:	49 89 d1             	mov    r9,rdx
     d75:	5e                   	pop    rsi
     d76:	48 89 e2             	mov    rdx,rsp
     d79:	48 83 e4 f0          	and    rsp,0xfffffffffffffff0
     d7d:	50                   	push   rax
     d7e:	54                   	push   rsp
     d7f:	4c 8d 05 6a f1 00 00 	lea    r8,[rip+0xf16a]        # fef0 <__libc_csu_fini>
     d86:	48 8d 0d f3 f0 00 00 	lea    rcx,[rip+0xf0f3]        # fe80 <__libc_csu_init>
     d8d:	48 8d 3d 2c fd ff ff 	lea    rdi,[rip+0xfffffffffffffd2c]        # ac0 <main>
     d94:	ff 15 46 12 21 00    	call   QWORD PTR [rip+0x211246]        # 211fe0 <__libc_start_main@GLIBC_2.2.5>
     d9a:	f4                   	hlt    
     d9b:	0f 1f 44 00 00       	nop    DWORD PTR [rax+rax*1+0x0]

0000000000000da0 <deregister_tm_clones>:
     da0:	48 8d 3d 69 12 21 00 	lea    rdi,[rip+0x211269]        # 212010 <__TMC_END__>
     da7:	55                   	push   rbp
     da8:	48 8d 05 61 12 21 00 	lea    rax,[rip+0x211261]        # 212010 <__TMC_END__>
     daf:	48 39 f8             	cmp    rax,rdi
     db2:	48 89 e5             	mov    rbp,rsp
     db5:	74 19                	je     dd0 <deregister_tm_clones+0x30>
     db7:	48 8b 05 1a 12 21 00 	mov    rax,QWORD PTR [rip+0x21121a]        # 211fd8 <_ITM_deregisterTMCloneTable>
     dbe:	48 85 c0             	test   rax,rax
     dc1:	74 0d                	je     dd0 <deregister_tm_clones+0x30>
     dc3:	5d                   	pop    rbp
     dc4:	ff e0                	jmp    rax
     dc6:	66 2e 0f 1f 84 00 00 	nop    WORD PTR cs:[rax+rax*1+0x0]
     dcd:	00 00 00 
     dd0:	5d                   	pop    rbp
     dd1:	c3                   	ret    
     dd2:	0f 1f 40 00          	nop    DWORD PTR [rax+0x0]
     dd6:	66 2e 0f 1f 84 00 00 	nop    WORD PTR cs:[rax+rax*1+0x0]
     ddd:	00 00 00 

0000000000000de0 <register_tm_clones>:
     de0:	48 8d 3d 29 12 21 00 	lea    rdi,[rip+0x211229]        # 212010 <__TMC_END__>
     de7:	48 8d 35 22 12 21 00 	lea    rsi,[rip+0x211222]        # 212010 <__TMC_END__>
     dee:	55                   	push   rbp
     def:	48 29 fe             	sub    rsi,rdi
     df2:	48 89 e5             	mov    rbp,rsp
     df5:	48 c1 fe 03          	sar    rsi,0x3
     df9:	48 89 f0             	mov    rax,rsi
     dfc:	48 c1 e8 3f          	shr    rax,0x3f
     e00:	48 01 c6             	add    rsi,rax
     e03:	48 d1 fe             	sar    rsi,1
     e06:	74 18                	je     e20 <register_tm_clones+0x40>
     e08:	48 8b 05 e1 11 21 00 	mov    rax,QWORD PTR [rip+0x2111e1]        # 211ff0 <_ITM_registerTMCloneTable>
     e0f:	48 85 c0             	test   rax,rax
     e12:	74 0c                	je     e20 <register_tm_clones+0x40>
     e14:	5d                   	pop    rbp
     e15:	ff e0                	jmp    rax
     e17:	66 0f 1f 84 00 00 00 	nop    WORD PTR [rax+rax*1+0x0]
     e1e:	00 00 
     e20:	5d                   	pop    rbp
     e21:	c3                   	ret    
     e22:	0f 1f 40 00          	nop    DWORD PTR [rax+0x0]
     e26:	66 2e 0f 1f 84 00 00 	nop    WORD PTR cs:[rax+rax*1+0x0]
     e2d:	00 00 00 

0000000000000e30 <__do_global_dtors_aux>:
     e30:	80 3d d9 11 21 00 00 	cmp    BYTE PTR [rip+0x2111d9],0x0        # 212010 <__TMC_END__>
     e37:	75 2f                	jne    e68 <__do_global_dtors_aux+0x38>
     e39:	48 83 3d b7 11 21 00 	cmp    QWORD PTR [rip+0x2111b7],0x0        # 211ff8 <__cxa_finalize@GLIBC_2.2.5>
     e40:	00 
     e41:	55                   	push   rbp
     e42:	48 89 e5             	mov    rbp,rsp
     e45:	74 0c                	je     e53 <__do_global_dtors_aux+0x23>
     e47:	48 8b 3d ba 11 21 00 	mov    rdi,QWORD PTR [rip+0x2111ba]        # 212008 <__dso_handle>
     e4e:	e8 5d fc ff ff       	call   ab0 <__cxa_finalize@plt>
     e53:	e8 48 ff ff ff       	call   da0 <deregister_tm_clones>
     e58:	c6 05 b1 11 21 00 01 	mov    BYTE PTR [rip+0x2111b1],0x1        # 212010 <__TMC_END__>
     e5f:	5d                   	pop    rbp
     e60:	c3                   	ret    
     e61:	0f 1f 80 00 00 00 00 	nop    DWORD PTR [rax+0x0]
     e68:	f3 c3                	repz ret 
     e6a:	66 0f 1f 44 00 00    	nop    WORD PTR [rax+rax*1+0x0]

0000000000000e70 <frame_dummy>:
     e70:	55                   	push   rbp
     e71:	48 89 e5             	mov    rbp,rsp
     e74:	5d                   	pop    rbp
     e75:	e9 66 ff ff ff       	jmp    de0 <register_tm_clones>
     e7a:	66 0f 1f 44 00 00    	nop    WORD PTR [rax+rax*1+0x0]

0000000000000e80 <cmpfunc>:
  }
  printf("\n----------------------------------\n");
}

int cmpfunc (const void * a, const void * b) {
  if (*(double*)a > *(double*)b) return 1;
     e80:	c5 fb 10 07          	vmovsd xmm0,QWORD PTR [rdi]
     e84:	c5 fb 10 0e          	vmovsd xmm1,QWORD PTR [rsi]
     e88:	b8 01 00 00 00       	mov    eax,0x1
     e8d:	c5 f9 2e c1          	vucomisd xmm0,xmm1
     e91:	77 0b                	ja     e9e <cmpfunc+0x1e>
  else if (*(double*)a < *(double*)b) return -1;
     e93:	31 c0                	xor    eax,eax
     e95:	c5 f9 2e c8          	vucomisd xmm1,xmm0
     e99:	0f 97 c0             	seta   al
     e9c:	f7 d8                	neg    eax
  else return 0;  
}
     e9e:	c3                   	ret    
     e9f:	90                   	nop

0000000000000ea0 <gimmik_mm>:

void
gimmik_mm(int n,
         const double* restrict b, int ldb,
         double* restrict c, int ldc)
{
     ea0:	4c 8d 54 24 08       	lea    r10,[rsp+0x8]
     ea5:	48 83 e4 c0          	and    rsp,0xffffffffffffffc0
     ea9:	41 ff 72 f8          	push   QWORD PTR [r10-0x8]
     ead:	55                   	push   rbp
     eae:	48 89 e5             	mov    rbp,rsp
     eb1:	41 57                	push   r15
     eb3:	41 56                	push   r14
     eb5:	41 55                	push   r13
     eb7:	41 54                	push   r12
     eb9:	41 52                	push   r10
     ebb:	53                   	push   rbx
     ebc:	48 81 ec 88 2f 00 00 	sub    rsp,0x2f88
     ec3:	89 bd 50 d4 ff ff    	mov    DWORD PTR [rbp-0x2bb0],edi
     ec9:	85 ff                	test   edi,edi
     ecb:	0f 8e 04 e5 00 00    	jle    f3d5 <gimmik_mm+0xe535>
     ed1:	41 89 d7             	mov    r15d,edx
    double dotp;

    #pragma omp simd
    for (int i = 0; i < n; i++)
    {
        dotp = 28.0*b[i + 9*ldb] + 3.0*b[i + 30*ldb] + 26.0*b[i + 67*ldb] + 10.0*b[i + 82*ldb] + 2.0*b[i + 112*ldb] + 18.0*b[i + 117*ldb];
     ed4:	6b c2 1e             	imul   eax,edx,0x1e
        c[i + 0*ldc] = dotp;
        dotp = 1.0*b[i + 2*ldb] + 16.0*b[i + 8*ldb] + 12.0*b[i + 14*ldb] + 8.0*b[i + 17*ldb] + 28.0*b[i + 36*ldb] + 30.0*b[i + 57*ldb] + 14.0*b[i + 97*ldb] + 15.0*b[i + 117*ldb] + 2.0*b[i + 118*ldb] + 6.0*b[i + 120*ldb] + 2.0*b[i + 126*ldb];
     ed7:	8d 1c 12             	lea    ebx,[rdx+rdx*1]
     eda:	41 89 fe             	mov    r14d,edi
        c[i + 1*ldc] = dotp;
        dotp = 8.0*b[i + 20*ldb] + 7.0*b[i + 26*ldb] + 1.0*b[i + 52*ldb] + 4.0*b[i + 76*ldb] + 5.0*b[i + 81*ldb] + 11.0*b[i + 84*ldb] + 26.0*b[i + 103*ldb] + 24.0*b[i + 121*ldb];
     edd:	45 6b df 1a          	imul   r11d,r15d,0x1a
        dotp = 28.0*b[i + 9*ldb] + 3.0*b[i + 30*ldb] + 26.0*b[i + 67*ldb] + 10.0*b[i + 82*ldb] + 2.0*b[i + 112*ldb] + 18.0*b[i + 117*ldb];
     ee1:	44 8d 14 d5 00 00 00 	lea    r10d,[rdx*8+0x0]
     ee8:	00 
        dotp = 1.0*b[i + 2*ldb] + 16.0*b[i + 8*ldb] + 12.0*b[i + 14*ldb] + 8.0*b[i + 17*ldb] + 28.0*b[i + 36*ldb] + 30.0*b[i + 57*ldb] + 14.0*b[i + 97*ldb] + 15.0*b[i + 117*ldb] + 2.0*b[i + 118*ldb] + 6.0*b[i + 120*ldb] + 2.0*b[i + 126*ldb];
     ee9:	89 9d e4 db ff ff    	mov    DWORD PTR [rbp-0x241c],ebx
        c[i + 2*ldc] = dotp;
        dotp = 11.0*b[i + 22*ldb] + 8.0*b[i + 44*ldb] + 27.0*b[i + 51*ldb] + 16.0*b[i + 80*ldb] + 16.0*b[i + 98*ldb] + 16.0*b[i + 107*ldb] + 25.0*b[i + 114*ldb] + 21.0*b[i + 118*ldb];
        c[i + 3*ldc] = dotp;
        dotp = 13.0*b[i + 64*ldb] + 3.0*b[i + 77*ldb] + 9.0*b[i + 111*ldb] + 3.0*b[i + 127*ldb];
        c[i + 4*ldc] = dotp;
        dotp = 20.0*b[i + 2*ldb] + 23.0*b[i + 13*ldb] + 10.0*b[i + 21*ldb] + 1.0*b[i + 23*ldb] + 27.0*b[i + 36*ldb] + 22.0*b[i + 70*ldb] + 4.0*b[i + 117*ldb] + 23.0*b[i + 124*ldb];
     eef:	44 01 fb             	add    ebx,r15d
        dotp = 1.0*b[i + 2*ldb] + 16.0*b[i + 8*ldb] + 12.0*b[i + 14*ldb] + 8.0*b[i + 17*ldb] + 28.0*b[i + 36*ldb] + 30.0*b[i + 57*ldb] + 14.0*b[i + 97*ldb] + 15.0*b[i + 117*ldb] + 2.0*b[i + 118*ldb] + 6.0*b[i + 120*ldb] + 2.0*b[i + 126*ldb];
     ef2:	41 6b ff 39          	imul   edi,r15d,0x39
        dotp = 28.0*b[i + 9*ldb] + 3.0*b[i + 30*ldb] + 26.0*b[i + 67*ldb] + 10.0*b[i + 82*ldb] + 2.0*b[i + 112*ldb] + 18.0*b[i + 117*ldb];
     ef6:	45 8d 2c 12          	lea    r13d,[r10+rdx*1]
     efa:	44 89 95 84 db ff ff 	mov    DWORD PTR [rbp-0x247c],r10d
        dotp = 8.0*b[i + 20*ldb] + 7.0*b[i + 26*ldb] + 1.0*b[i + 52*ldb] + 4.0*b[i + 76*ldb] + 5.0*b[i + 81*ldb] + 11.0*b[i + 84*ldb] + 26.0*b[i + 103*ldb] + 24.0*b[i + 121*ldb];
     f01:	46 8d 24 ed 00 00 00 	lea    r12d,[r13*8+0x0]
     f08:	00 
        dotp = 28.0*b[i + 9*ldb] + 3.0*b[i + 30*ldb] + 26.0*b[i + 67*ldb] + 10.0*b[i + 82*ldb] + 2.0*b[i + 112*ldb] + 18.0*b[i + 117*ldb];
     f09:	89 85 f8 db ff ff    	mov    DWORD PTR [rbp-0x2408],eax
        dotp = 8.0*b[i + 20*ldb] + 7.0*b[i + 26*ldb] + 1.0*b[i + 52*ldb] + 4.0*b[i + 76*ldb] + 5.0*b[i + 81*ldb] + 11.0*b[i + 84*ldb] + 26.0*b[i + 103*ldb] + 24.0*b[i + 121*ldb];
     f0f:	44 89 9d c8 db ff ff 	mov    DWORD PTR [rbp-0x2438],r11d
     f16:	45 6b df 34          	imul   r11d,r15d,0x34
        dotp = 28.0*b[i + 9*ldb] + 3.0*b[i + 30*ldb] + 26.0*b[i + 67*ldb] + 10.0*b[i + 82*ldb] + 2.0*b[i + 112*ldb] + 18.0*b[i + 117*ldb];
     f1a:	6b c2 43             	imul   eax,edx,0x43
        dotp = 1.0*b[i + 2*ldb] + 16.0*b[i + 8*ldb] + 12.0*b[i + 14*ldb] + 8.0*b[i + 17*ldb] + 28.0*b[i + 36*ldb] + 30.0*b[i + 57*ldb] + 14.0*b[i + 97*ldb] + 15.0*b[i + 117*ldb] + 2.0*b[i + 118*ldb] + 6.0*b[i + 120*ldb] + 2.0*b[i + 126*ldb];
     f1d:	89 bd dc db ff ff    	mov    DWORD PTR [rbp-0x2424],edi
     f23:	41 6b ff 61          	imul   edi,r15d,0x61
        dotp = 8.0*b[i + 20*ldb] + 7.0*b[i + 26*ldb] + 1.0*b[i + 52*ldb] + 4.0*b[i + 76*ldb] + 5.0*b[i + 81*ldb] + 11.0*b[i + 84*ldb] + 26.0*b[i + 103*ldb] + 24.0*b[i + 121*ldb];
     f27:	44 89 a5 48 dc ff ff 	mov    DWORD PTR [rbp-0x23b8],r12d
     f2e:	44 89 9d c4 db ff ff 	mov    DWORD PTR [rbp-0x243c],r11d
     f35:	45 6b df 4c          	imul   r11d,r15d,0x4c
        dotp = 28.0*b[i + 9*ldb] + 3.0*b[i + 30*ldb] + 26.0*b[i + 67*ldb] + 10.0*b[i + 82*ldb] + 2.0*b[i + 112*ldb] + 18.0*b[i + 117*ldb];
     f39:	89 85 f4 db ff ff    	mov    DWORD PTR [rbp-0x240c],eax
     f3f:	6b c2 52             	imul   eax,edx,0x52
        dotp = 1.0*b[i + 2*ldb] + 16.0*b[i + 8*ldb] + 12.0*b[i + 14*ldb] + 8.0*b[i + 17*ldb] + 28.0*b[i + 36*ldb] + 30.0*b[i + 57*ldb] + 14.0*b[i + 97*ldb] + 15.0*b[i + 117*ldb] + 2.0*b[i + 118*ldb] + 6.0*b[i + 120*ldb] + 2.0*b[i + 126*ldb];
     f42:	89 bd d8 db ff ff    	mov    DWORD PTR [rbp-0x2428],edi
     f48:	41 6b ff 76          	imul   edi,r15d,0x76
        dotp = 8.0*b[i + 20*ldb] + 7.0*b[i + 26*ldb] + 1.0*b[i + 52*ldb] + 4.0*b[i + 76*ldb] + 5.0*b[i + 81*ldb] + 11.0*b[i + 84*ldb] + 26.0*b[i + 103*ldb] + 24.0*b[i + 121*ldb];
     f4c:	44 89 9d c0 db ff ff 	mov    DWORD PTR [rbp-0x2440],r11d
     f53:	47 8d 5c 25 00       	lea    r11d,[r13+r12*1+0x0]
     f58:	44 89 9d 74 db ff ff 	mov    DWORD PTR [rbp-0x248c],r11d
     f5f:	45 6b df 54          	imul   r11d,r15d,0x54
        dotp = 28.0*b[i + 9*ldb] + 3.0*b[i + 30*ldb] + 26.0*b[i + 67*ldb] + 10.0*b[i + 82*ldb] + 2.0*b[i + 112*ldb] + 18.0*b[i + 117*ldb];
     f63:	89 85 f0 db ff ff    	mov    DWORD PTR [rbp-0x2410],eax
     f69:	6b c2 70             	imul   eax,edx,0x70
        dotp = 1.0*b[i + 2*ldb] + 16.0*b[i + 8*ldb] + 12.0*b[i + 14*ldb] + 8.0*b[i + 17*ldb] + 28.0*b[i + 36*ldb] + 30.0*b[i + 57*ldb] + 14.0*b[i + 97*ldb] + 15.0*b[i + 117*ldb] + 2.0*b[i + 118*ldb] + 6.0*b[i + 120*ldb] + 2.0*b[i + 126*ldb];
     f6c:	89 bd d4 db ff ff    	mov    DWORD PTR [rbp-0x242c],edi
     f72:	41 6b ff 78          	imul   edi,r15d,0x78
        dotp = 8.0*b[i + 20*ldb] + 7.0*b[i + 26*ldb] + 1.0*b[i + 52*ldb] + 4.0*b[i + 76*ldb] + 5.0*b[i + 81*ldb] + 11.0*b[i + 84*ldb] + 26.0*b[i + 103*ldb] + 24.0*b[i + 121*ldb];
     f76:	44 89 9d bc db ff ff 	mov    DWORD PTR [rbp-0x2444],r11d
     f7d:	45 6b df 67          	imul   r11d,r15d,0x67
        dotp = 28.0*b[i + 9*ldb] + 3.0*b[i + 30*ldb] + 26.0*b[i + 67*ldb] + 10.0*b[i + 82*ldb] + 2.0*b[i + 112*ldb] + 18.0*b[i + 117*ldb];
     f81:	89 85 ec db ff ff    	mov    DWORD PTR [rbp-0x2414],eax
     f87:	6b c2 75             	imul   eax,edx,0x75
        dotp = 1.0*b[i + 2*ldb] + 16.0*b[i + 8*ldb] + 12.0*b[i + 14*ldb] + 8.0*b[i + 17*ldb] + 28.0*b[i + 36*ldb] + 30.0*b[i + 57*ldb] + 14.0*b[i + 97*ldb] + 15.0*b[i + 117*ldb] + 2.0*b[i + 118*ldb] + 6.0*b[i + 120*ldb] + 2.0*b[i + 126*ldb];
     f8a:	89 bd d0 db ff ff    	mov    DWORD PTR [rbp-0x2430],edi
     f90:	41 6b ff 7e          	imul   edi,r15d,0x7e
        dotp = 8.0*b[i + 20*ldb] + 7.0*b[i + 26*ldb] + 1.0*b[i + 52*ldb] + 4.0*b[i + 76*ldb] + 5.0*b[i + 81*ldb] + 11.0*b[i + 84*ldb] + 26.0*b[i + 103*ldb] + 24.0*b[i + 121*ldb];
     f94:	44 89 9d b8 db ff ff 	mov    DWORD PTR [rbp-0x2448],r11d
     f9b:	45 6b df 79          	imul   r11d,r15d,0x79
        dotp = 28.0*b[i + 9*ldb] + 3.0*b[i + 30*ldb] + 26.0*b[i + 67*ldb] + 10.0*b[i + 82*ldb] + 2.0*b[i + 112*ldb] + 18.0*b[i + 117*ldb];
     f9f:	89 85 e8 db ff ff    	mov    DWORD PTR [rbp-0x2418],eax
        dotp = 1.0*b[i + 2*ldb] + 16.0*b[i + 8*ldb] + 12.0*b[i + 14*ldb] + 8.0*b[i + 17*ldb] + 28.0*b[i + 36*ldb] + 30.0*b[i + 57*ldb] + 14.0*b[i + 97*ldb] + 15.0*b[i + 117*ldb] + 2.0*b[i + 118*ldb] + 6.0*b[i + 120*ldb] + 2.0*b[i + 126*ldb];
     fa5:	6b c2 0e             	imul   eax,edx,0xe
     fa8:	c1 e2 04             	shl    edx,0x4
     fab:	89 bd cc db ff ff    	mov    DWORD PTR [rbp-0x2434],edi
        dotp = 8.0*b[i + 20*ldb] + 7.0*b[i + 26*ldb] + 1.0*b[i + 52*ldb] + 4.0*b[i + 76*ldb] + 5.0*b[i + 81*ldb] + 11.0*b[i + 84*ldb] + 26.0*b[i + 103*ldb] + 24.0*b[i + 121*ldb];
     fb1:	42 8d 3c bd 00 00 00 	lea    edi,[r15*4+0x0]
     fb8:	00 
     fb9:	44 89 9d 38 dd ff ff 	mov    DWORD PTR [rbp-0x22c8],r11d
        dotp = 11.0*b[i + 22*ldb] + 8.0*b[i + 44*ldb] + 27.0*b[i + 51*ldb] + 16.0*b[i + 80*ldb] + 16.0*b[i + 98*ldb] + 16.0*b[i + 107*ldb] + 25.0*b[i + 114*ldb] + 21.0*b[i + 118*ldb];
     fc0:	45 6b df 16          	imul   r11d,r15d,0x16
        dotp = 1.0*b[i + 2*ldb] + 16.0*b[i + 8*ldb] + 12.0*b[i + 14*ldb] + 8.0*b[i + 17*ldb] + 28.0*b[i + 36*ldb] + 30.0*b[i + 57*ldb] + 14.0*b[i + 97*ldb] + 15.0*b[i + 117*ldb] + 2.0*b[i + 118*ldb] + 6.0*b[i + 120*ldb] + 2.0*b[i + 126*ldb];
     fc4:	89 85 e0 db ff ff    	mov    DWORD PTR [rbp-0x2420],eax
     fca:	42 8d 04 3a          	lea    eax,[rdx+r15*1]
     fce:	89 85 80 db ff ff    	mov    DWORD PTR [rbp-0x2480],eax
     fd4:	42 8d 04 ad 00 00 00 	lea    eax,[r13*4+0x0]
     fdb:	00 
        dotp = 11.0*b[i + 22*ldb] + 8.0*b[i + 44*ldb] + 27.0*b[i + 51*ldb] + 16.0*b[i + 80*ldb] + 16.0*b[i + 98*ldb] + 16.0*b[i + 107*ldb] + 25.0*b[i + 114*ldb] + 21.0*b[i + 118*ldb];
     fdc:	44 89 9d 34 dd ff ff 	mov    DWORD PTR [rbp-0x22cc],r11d
     fe3:	45 6b df 2c          	imul   r11d,r15d,0x2c
        dotp = 8.0*b[i + 20*ldb] + 7.0*b[i + 26*ldb] + 1.0*b[i + 52*ldb] + 4.0*b[i + 76*ldb] + 5.0*b[i + 81*ldb] + 11.0*b[i + 84*ldb] + 26.0*b[i + 103*ldb] + 24.0*b[i + 121*ldb];
     fe7:	89 bd 50 dc ff ff    	mov    DWORD PTR [rbp-0x23b0],edi
     fed:	44 01 ff             	add    edi,r15d
        dotp = 1.0*b[i + 2*ldb] + 16.0*b[i + 8*ldb] + 12.0*b[i + 14*ldb] + 8.0*b[i + 17*ldb] + 28.0*b[i + 36*ldb] + 30.0*b[i + 57*ldb] + 14.0*b[i + 97*ldb] + 15.0*b[i + 117*ldb] + 2.0*b[i + 118*ldb] + 6.0*b[i + 120*ldb] + 2.0*b[i + 126*ldb];
     ff0:	89 85 7c db ff ff    	mov    DWORD PTR [rbp-0x2484],eax
        dotp = 11.0*b[i + 22*ldb] + 8.0*b[i + 44*ldb] + 27.0*b[i + 51*ldb] + 16.0*b[i + 80*ldb] + 16.0*b[i + 98*ldb] + 16.0*b[i + 107*ldb] + 25.0*b[i + 114*ldb] + 21.0*b[i + 118*ldb];
     ff6:	89 f8                	mov    eax,edi
        dotp = 8.0*b[i + 20*ldb] + 7.0*b[i + 26*ldb] + 1.0*b[i + 52*ldb] + 4.0*b[i + 76*ldb] + 5.0*b[i + 81*ldb] + 11.0*b[i + 84*ldb] + 26.0*b[i + 103*ldb] + 24.0*b[i + 121*ldb];
     ff8:	44 8d 0c bd 00 00 00 	lea    r9d,[rdi*4+0x0]
     fff:	00 
        dotp = 11.0*b[i + 22*ldb] + 8.0*b[i + 44*ldb] + 27.0*b[i + 51*ldb] + 16.0*b[i + 80*ldb] + 16.0*b[i + 98*ldb] + 16.0*b[i + 107*ldb] + 25.0*b[i + 114*ldb] + 21.0*b[i + 118*ldb];
    1000:	44 89 9d 30 dd ff ff 	mov    DWORD PTR [rbp-0x22d0],r11d
    1007:	45 6b df 33          	imul   r11d,r15d,0x33
    100b:	c1 e0 04             	shl    eax,0x4
    100e:	89 85 44 dc ff ff    	mov    DWORD PTR [rbp-0x23bc],eax
        dotp = 13.0*b[i + 64*ldb] + 3.0*b[i + 77*ldb] + 9.0*b[i + 111*ldb] + 3.0*b[i + 127*ldb];
    1014:	41 6b c7 4d          	imul   eax,r15d,0x4d
        dotp = 1.0*b[i + 2*ldb] + 16.0*b[i + 8*ldb] + 12.0*b[i + 14*ldb] + 8.0*b[i + 17*ldb] + 28.0*b[i + 36*ldb] + 30.0*b[i + 57*ldb] + 14.0*b[i + 97*ldb] + 15.0*b[i + 117*ldb] + 2.0*b[i + 118*ldb] + 6.0*b[i + 120*ldb] + 2.0*b[i + 126*ldb];
    1018:	89 95 54 dc ff ff    	mov    DWORD PTR [rbp-0x23ac],edx
        dotp = 11.0*b[i + 22*ldb] + 8.0*b[i + 44*ldb] + 27.0*b[i + 51*ldb] + 16.0*b[i + 80*ldb] + 16.0*b[i + 98*ldb] + 16.0*b[i + 107*ldb] + 25.0*b[i + 114*ldb] + 21.0*b[i + 118*ldb];
    101e:	44 89 9d 2c dd ff ff 	mov    DWORD PTR [rbp-0x22d4],r11d
    1025:	45 6b df 62          	imul   r11d,r15d,0x62
        dotp = 8.0*b[i + 20*ldb] + 7.0*b[i + 26*ldb] + 1.0*b[i + 52*ldb] + 4.0*b[i + 76*ldb] + 5.0*b[i + 81*ldb] + 11.0*b[i + 84*ldb] + 26.0*b[i + 103*ldb] + 24.0*b[i + 121*ldb];
    1029:	89 bd 4c dc ff ff    	mov    DWORD PTR [rbp-0x23b4],edi
    102f:	44 89 8d 78 db ff ff 	mov    DWORD PTR [rbp-0x2488],r9d
        dotp = 11.0*b[i + 22*ldb] + 8.0*b[i + 44*ldb] + 27.0*b[i + 51*ldb] + 16.0*b[i + 80*ldb] + 16.0*b[i + 98*ldb] + 16.0*b[i + 107*ldb] + 25.0*b[i + 114*ldb] + 21.0*b[i + 118*ldb];
    1036:	44 89 9d 28 dd ff ff 	mov    DWORD PTR [rbp-0x22d8],r11d
    103d:	45 6b df 72          	imul   r11d,r15d,0x72
    1041:	44 89 9d 24 dd ff ff 	mov    DWORD PTR [rbp-0x22dc],r11d
        dotp = 13.0*b[i + 64*ldb] + 3.0*b[i + 77*ldb] + 9.0*b[i + 111*ldb] + 3.0*b[i + 127*ldb];
    1048:	45 89 fb             	mov    r11d,r15d
    104b:	89 85 1c dd ff ff    	mov    DWORD PTR [rbp-0x22e4],eax
    1051:	41 6b c7 6f          	imul   eax,r15d,0x6f
    1055:	41 c1 e3 06          	shl    r11d,0x6
        dotp = 20.0*b[i + 2*ldb] + 23.0*b[i + 13*ldb] + 10.0*b[i + 21*ldb] + 1.0*b[i + 23*ldb] + 27.0*b[i + 36*ldb] + 22.0*b[i + 70*ldb] + 4.0*b[i + 117*ldb] + 23.0*b[i + 124*ldb];
    1059:	89 9d 3c dc ff ff    	mov    DWORD PTR [rbp-0x23c4],ebx
        dotp = 13.0*b[i + 64*ldb] + 3.0*b[i + 77*ldb] + 9.0*b[i + 111*ldb] + 3.0*b[i + 127*ldb];
    105f:	44 89 9d 20 dd ff ff 	mov    DWORD PTR [rbp-0x22e0],r11d
    1066:	89 85 18 dd ff ff    	mov    DWORD PTR [rbp-0x22e8],eax
    106c:	44 89 f8             	mov    eax,r15d
    106f:	c1 e0 07             	shl    eax,0x7
    1072:	44 29 f8             	sub    eax,r15d
    1075:	89 85 40 dc ff ff    	mov    DWORD PTR [rbp-0x23c0],eax
        dotp = 20.0*b[i + 2*ldb] + 23.0*b[i + 13*ldb] + 10.0*b[i + 21*ldb] + 1.0*b[i + 23*ldb] + 27.0*b[i + 36*ldb] + 22.0*b[i + 70*ldb] + 4.0*b[i + 117*ldb] + 23.0*b[i + 124*ldb];
    107b:	8d 04 9d 00 00 00 00 	lea    eax,[rbx*4+0x0]
    1082:	89 85 38 dc ff ff    	mov    DWORD PTR [rbp-0x23c8],eax
    1088:	44 01 f8             	add    eax,r15d
    108b:	89 85 34 dc ff ff    	mov    DWORD PTR [rbp-0x23cc],eax
    1091:	43 8d 04 39          	lea    eax,[r9+r15*1]
    1095:	89 85 30 dc ff ff    	mov    DWORD PTR [rbp-0x23d0],eax
    109b:	41 6b c7 17          	imul   eax,r15d,0x17
    109f:	89 85 b4 db ff ff    	mov    DWORD PTR [rbp-0x244c],eax
    10a5:	41 6b c7 46          	imul   eax,r15d,0x46
    10a9:	89 85 14 dd ff ff    	mov    DWORD PTR [rbp-0x22ec],eax
    10af:	41 6b c7 7c          	imul   eax,r15d,0x7c
    10b3:	89 85 10 dd ff ff    	mov    DWORD PTR [rbp-0x22f0],eax
        c[i + 5*ldc] = dotp;
        dotp = 18.0*b[i + 28*ldb] + 18.0*b[i + 47*ldb] + 12.0*b[i + 54*ldb] + 16.0*b[i + 59*ldb] + 7.0*b[i + 68*ldb] + 9.0*b[i + 87*ldb] + 20.0*b[i + 89*ldb] + 12.0*b[i + 91*ldb] + 18.0*b[i + 92*ldb] + 22.0*b[i + 110*ldb] + 1.0*b[i + 119*ldb];
    10b9:	41 6b c7 1c          	imul   eax,r15d,0x1c
    10bd:	89 85 0c dd ff ff    	mov    DWORD PTR [rbp-0x22f4],eax
    10c3:	41 6b c7 2f          	imul   eax,r15d,0x2f
    10c7:	89 85 b0 db ff ff    	mov    DWORD PTR [rbp-0x2450],eax
    10cd:	41 6b c7 36          	imul   eax,r15d,0x36
    10d1:	89 85 08 dd ff ff    	mov    DWORD PTR [rbp-0x22f8],eax
    10d7:	41 6b c7 3b          	imul   eax,r15d,0x3b
    10db:	89 85 ac db ff ff    	mov    DWORD PTR [rbp-0x2454],eax
    10e1:	41 6b c7 57          	imul   eax,r15d,0x57
    10e5:	89 85 a8 db ff ff    	mov    DWORD PTR [rbp-0x2458],eax
    10eb:	41 6b c7 59          	imul   eax,r15d,0x59
    10ef:	89 85 a4 db ff ff    	mov    DWORD PTR [rbp-0x245c],eax
    10f5:	41 6b c7 5b          	imul   eax,r15d,0x5b
    10f9:	89 85 a0 db ff ff    	mov    DWORD PTR [rbp-0x2460],eax
    10ff:	41 6b c7 5c          	imul   eax,r15d,0x5c
    1103:	89 85 04 dd ff ff    	mov    DWORD PTR [rbp-0x22fc],eax
    1109:	41 6b c7 6e          	imul   eax,r15d,0x6e
    110d:	89 85 00 dd ff ff    	mov    DWORD PTR [rbp-0x2300],eax
        c[i + 6*ldc] = dotp;
        dotp = 28.0*b[i + 16*ldb] + 23.0*b[i + 35*ldb] + 1.0*b[i + 52*ldb] + 1.0*b[i + 69*ldb] + 15.0*b[i + 90*ldb] + 26.0*b[i + 100*ldb];
    1113:	41 6b c7 23          	imul   eax,r15d,0x23
    1117:	89 85 9c db ff ff    	mov    DWORD PTR [rbp-0x2464],eax
    111d:	41 6b c7 45          	imul   eax,r15d,0x45
    1121:	89 85 fc dc ff ff    	mov    DWORD PTR [rbp-0x2304],eax
    1127:	41 6b c7 5a          	imul   eax,r15d,0x5a
    112b:	89 85 98 db ff ff    	mov    DWORD PTR [rbp-0x2468],eax
    1131:	41 6b c7 64          	imul   eax,r15d,0x64
    1135:	89 85 f8 dc ff ff    	mov    DWORD PTR [rbp-0x2308],eax
        c[i + 7*ldc] = dotp;
        dotp = 8.0*b[i + 5*ldb] + 14.0*b[i + 17*ldb] + 31.0*b[i + 47*ldb] + 19.0*b[i + 106*ldb] + 14.0*b[i + 127*ldb];
    113b:	41 6b c7 6a          	imul   eax,r15d,0x6a
    113f:	89 85 f4 dc ff ff    	mov    DWORD PTR [rbp-0x230c],eax
        c[i + 8*ldc] = dotp;
        dotp = 15.0*b[i + 25*ldb] + 8.0*b[i + 64*ldb] + 8.0*b[i + 66*ldb];
    1145:	89 f8                	mov    eax,edi
    1147:	44 01 cf             	add    edi,r9d
        c[i + 11*ldc] = dotp;
        dotp = 24.0*b[i + 4*ldb] + 6.0*b[i + 51*ldb] + 16.0*b[i + 78*ldb] + 18.0*b[i + 89*ldb] + 6.0*b[i + 117*ldb];
        c[i + 12*ldc] = dotp;
        dotp = 12.0*b[i + 29*ldb] + 10.0*b[i + 73*ldb] + 28.0*b[i + 78*ldb] + 1.0*b[i + 103*ldb] + 13.0*b[i + 104*ldb] + 28.0*b[i + 126*ldb];
        c[i + 13*ldc] = dotp;
        dotp = 16.0*b[i + 1*ldb] + 6.0*b[i + 17*ldb] + 2.0*b[i + 31*ldb] + 13.0*b[i + 36*ldb] + 1.0*b[i + 70*ldb] + 16.0*b[i + 74*ldb] + 9.0*b[i + 88*ldb] + 14.0*b[i + 104*ldb];
    114a:	45 89 f9             	mov    r9d,r15d
        dotp = 15.0*b[i + 25*ldb] + 8.0*b[i + 64*ldb] + 8.0*b[i + 66*ldb];
    114d:	89 bd 2c dc ff ff    	mov    DWORD PTR [rbp-0x23d4],edi
    1153:	41 6b ff 42          	imul   edi,r15d,0x42
        dotp = 16.0*b[i + 1*ldb] + 6.0*b[i + 17*ldb] + 2.0*b[i + 31*ldb] + 13.0*b[i + 36*ldb] + 1.0*b[i + 70*ldb] + 16.0*b[i + 74*ldb] + 9.0*b[i + 88*ldb] + 14.0*b[i + 104*ldb];
    1157:	41 c1 e1 05          	shl    r9d,0x5
        dotp = 15.0*b[i + 25*ldb] + 8.0*b[i + 64*ldb] + 8.0*b[i + 66*ldb];
    115b:	89 bd f0 dc ff ff    	mov    DWORD PTR [rbp-0x2310],edi
        dotp = 7.0*b[i + 12*ldb] + 9.0*b[i + 51*ldb] + 29.0*b[i + 56*ldb] + 5.0*b[i + 66*ldb] + 14.0*b[i + 67*ldb] + 11.0*b[i + 112*ldb] + 10.0*b[i + 117*ldb];
    1161:	41 6b ff 38          	imul   edi,r15d,0x38
    1165:	89 bd ec dc ff ff    	mov    DWORD PTR [rbp-0x2314],edi
        dotp = 15.0*b[i + 9*ldb] + 22.0*b[i + 26*ldb] + 5.0*b[i + 67*ldb] + 27.0*b[i + 70*ldb] + 28.0*b[i + 79*ldb] + 22.0*b[i + 82*ldb] + 12.0*b[i + 83*ldb] + 23.0*b[i + 89*ldb];
    116b:	41 6b ff 4f          	imul   edi,r15d,0x4f
    116f:	89 bd e8 dc ff ff    	mov    DWORD PTR [rbp-0x2318],edi
    1175:	41 6b ff 53          	imul   edi,r15d,0x53
    1179:	89 bd e4 dc ff ff    	mov    DWORD PTR [rbp-0x231c],edi
        dotp = 24.0*b[i + 4*ldb] + 6.0*b[i + 51*ldb] + 16.0*b[i + 78*ldb] + 18.0*b[i + 89*ldb] + 6.0*b[i + 117*ldb];
    117f:	41 6b ff 4e          	imul   edi,r15d,0x4e
    1183:	89 bd e0 dc ff ff    	mov    DWORD PTR [rbp-0x2320],edi
        dotp = 12.0*b[i + 29*ldb] + 10.0*b[i + 73*ldb] + 28.0*b[i + 78*ldb] + 1.0*b[i + 103*ldb] + 13.0*b[i + 104*ldb] + 28.0*b[i + 126*ldb];
    1189:	41 6b ff 1d          	imul   edi,r15d,0x1d
    118d:	89 bd dc dc ff ff    	mov    DWORD PTR [rbp-0x2324],edi
    1193:	43 8d 3c 3c          	lea    edi,[r12+r15*1]
        c[i + 14*ldc] = dotp;
        dotp = 12.0*b[i + 18*ldb] + 25.0*b[i + 25*ldb] + 16.0*b[i + 55*ldb] + 5.0*b[i + 63*ldb] + 4.0*b[i + 94*ldb] + 18.0*b[i + 96*ldb];
    1197:	47 8d 64 2d 00       	lea    r12d,[r13+r13*1+0x0]
        dotp = 12.0*b[i + 29*ldb] + 10.0*b[i + 73*ldb] + 28.0*b[i + 78*ldb] + 1.0*b[i + 103*ldb] + 13.0*b[i + 104*ldb] + 28.0*b[i + 126*ldb];
    119c:	89 bd 28 dc ff ff    	mov    DWORD PTR [rbp-0x23d8],edi
    11a2:	41 6b ff 68          	imul   edi,r15d,0x68
        dotp = 16.0*b[i + 1*ldb] + 6.0*b[i + 17*ldb] + 2.0*b[i + 31*ldb] + 13.0*b[i + 36*ldb] + 1.0*b[i + 70*ldb] + 16.0*b[i + 74*ldb] + 9.0*b[i + 88*ldb] + 14.0*b[i + 104*ldb];
    11a6:	44 89 8d 24 dc ff ff 	mov    DWORD PTR [rbp-0x23dc],r9d
        dotp = 12.0*b[i + 18*ldb] + 25.0*b[i + 25*ldb] + 16.0*b[i + 55*ldb] + 5.0*b[i + 63*ldb] + 4.0*b[i + 94*ldb] + 18.0*b[i + 96*ldb];
    11ad:	44 89 a5 20 dc ff ff 	mov    DWORD PTR [rbp-0x23e0],r12d
        dotp = 12.0*b[i + 29*ldb] + 10.0*b[i + 73*ldb] + 28.0*b[i + 78*ldb] + 1.0*b[i + 103*ldb] + 13.0*b[i + 104*ldb] + 28.0*b[i + 126*ldb];
    11b4:	89 bd d8 dc ff ff    	mov    DWORD PTR [rbp-0x2328],edi
        dotp = 16.0*b[i + 1*ldb] + 6.0*b[i + 17*ldb] + 2.0*b[i + 31*ldb] + 13.0*b[i + 36*ldb] + 1.0*b[i + 70*ldb] + 16.0*b[i + 74*ldb] + 9.0*b[i + 88*ldb] + 14.0*b[i + 104*ldb];
    11ba:	44 89 cf             	mov    edi,r9d
    11bd:	44 29 ff             	sub    edi,r15d
    11c0:	89 bd 70 db ff ff    	mov    DWORD PTR [rbp-0x2490],edi
    11c6:	41 6b ff 4a          	imul   edi,r15d,0x4a
    11ca:	89 bd d4 dc ff ff    	mov    DWORD PTR [rbp-0x232c],edi
    11d0:	41 6b ff 58          	imul   edi,r15d,0x58
    11d4:	89 bd d0 dc ff ff    	mov    DWORD PTR [rbp-0x2330],edi
        dotp = 12.0*b[i + 18*ldb] + 25.0*b[i + 25*ldb] + 16.0*b[i + 55*ldb] + 5.0*b[i + 63*ldb] + 4.0*b[i + 94*ldb] + 18.0*b[i + 96*ldb];
    11da:	41 6b ff 37          	imul   edi,r15d,0x37
    11de:	89 bd 94 db ff ff    	mov    DWORD PTR [rbp-0x246c],edi
    11e4:	44 89 df             	mov    edi,r11d
    11e7:	44 29 ff             	sub    edi,r15d
    11ea:	89 bd 1c dc ff ff    	mov    DWORD PTR [rbp-0x23e4],edi
    11f0:	41 6b ff 5e          	imul   edi,r15d,0x5e
    11f4:	89 bd cc dc ff ff    	mov    DWORD PTR [rbp-0x2334],edi
    11fa:	89 df                	mov    edi,ebx
    11fc:	c1 e7 05             	shl    edi,0x5
        c[i + 19*ldc] = dotp;
        dotp = 27.0*b[i + 27*ldb] + 10.0*b[i + 51*ldb] + 27.0*b[i + 72*ldb] + 27.0*b[i + 86*ldb] + 30.0*b[i + 87*ldb] + 21.0*b[i + 90*ldb] + 4.0*b[i + 95*ldb] + 4.0*b[i + 96*ldb];
        c[i + 20*ldc] = dotp;
        dotp = 24.0*b[i + 33*ldb] + 9.0*b[i + 43*ldb] + 27.0*b[i + 57*ldb] + 3.0*b[i + 76*ldb] + 18.0*b[i + 80*ldb] + 6.0*b[i + 96*ldb] + 5.0*b[i + 123*ldb];
        c[i + 21*ldc] = dotp;
        dotp = 13.0*b[i + 15*ldb] + 21.0*b[i + 40*ldb] + 11.0*b[i + 96*ldb] + 28.0*b[i + 102*ldb] + 15.0*b[i + 105*ldb] + 25.0*b[i + 107*ldb] + 2.0*b[i + 117*ldb];
    11ff:	44 29 fa             	sub    edx,r15d
        dotp = 12.0*b[i + 18*ldb] + 25.0*b[i + 25*ldb] + 16.0*b[i + 55*ldb] + 5.0*b[i + 63*ldb] + 4.0*b[i + 94*ldb] + 18.0*b[i + 96*ldb];
    1202:	89 bd 6c db ff ff    	mov    DWORD PTR [rbp-0x2494],edi
        dotp = 10.0*b[i + 9*ldb] + 21.0*b[i + 43*ldb] + 10.0*b[i + 47*ldb] + 19.0*b[i + 120*ldb] + 28.0*b[i + 125*ldb];
    1208:	41 6b ff 2b          	imul   edi,r15d,0x2b
        dotp = 13.0*b[i + 15*ldb] + 21.0*b[i + 40*ldb] + 11.0*b[i + 96*ldb] + 28.0*b[i + 102*ldb] + 15.0*b[i + 105*ldb] + 25.0*b[i + 107*ldb] + 2.0*b[i + 117*ldb];
    120c:	89 95 10 dc ff ff    	mov    DWORD PTR [rbp-0x23f0],edx
    1212:	41 6b d7 66          	imul   edx,r15d,0x66
        dotp = 10.0*b[i + 9*ldb] + 21.0*b[i + 43*ldb] + 10.0*b[i + 47*ldb] + 19.0*b[i + 120*ldb] + 28.0*b[i + 125*ldb];
    1216:	89 bd c8 dc ff ff    	mov    DWORD PTR [rbp-0x2338],edi
    121c:	41 6b ff 7d          	imul   edi,r15d,0x7d
        dotp = 13.0*b[i + 15*ldb] + 21.0*b[i + 40*ldb] + 11.0*b[i + 96*ldb] + 28.0*b[i + 102*ldb] + 15.0*b[i + 105*ldb] + 25.0*b[i + 107*ldb] + 2.0*b[i + 117*ldb];
    1220:	89 95 a8 dc ff ff    	mov    DWORD PTR [rbp-0x2358],edx
    1226:	41 6b d7 69          	imul   edx,r15d,0x69
        dotp = 10.0*b[i + 9*ldb] + 21.0*b[i + 43*ldb] + 10.0*b[i + 47*ldb] + 19.0*b[i + 120*ldb] + 28.0*b[i + 125*ldb];
    122a:	89 bd c4 dc ff ff    	mov    DWORD PTR [rbp-0x233c],edi
        dotp = 23.0*b[i + 25*ldb] + 29.0*b[i + 77*ldb] + 2.0*b[i + 86*ldb] + 26.0*b[i + 99*ldb];
    1230:	41 6b ff 56          	imul   edi,r15d,0x56
        dotp = 13.0*b[i + 15*ldb] + 21.0*b[i + 40*ldb] + 11.0*b[i + 96*ldb] + 28.0*b[i + 102*ldb] + 15.0*b[i + 105*ldb] + 25.0*b[i + 107*ldb] + 2.0*b[i + 117*ldb];
    1234:	89 95 8c db ff ff    	mov    DWORD PTR [rbp-0x2474],edx
        c[i + 22*ldc] = dotp;
        dotp = 11.0*b[i + 5*ldb] + 28.0*b[i + 11*ldb] + 20.0*b[i + 18*ldb] + 30.0*b[i + 20*ldb] + 22.0*b[i + 55*ldb] + 13.0*b[i + 79*ldb] + 10.0*b[i + 92*ldb];
    123a:	8d 14 00             	lea    edx,[rax+rax*1]
    123d:	89 95 08 dc ff ff    	mov    DWORD PTR [rbp-0x23f8],edx
    1243:	44 01 fa             	add    edx,r15d
        dotp = 23.0*b[i + 25*ldb] + 29.0*b[i + 77*ldb] + 2.0*b[i + 86*ldb] + 26.0*b[i + 99*ldb];
    1246:	89 bd c0 dc ff ff    	mov    DWORD PTR [rbp-0x2340],edi
    124c:	41 6b ff 63          	imul   edi,r15d,0x63
        dotp = 11.0*b[i + 5*ldb] + 28.0*b[i + 11*ldb] + 20.0*b[i + 18*ldb] + 30.0*b[i + 20*ldb] + 22.0*b[i + 55*ldb] + 13.0*b[i + 79*ldb] + 10.0*b[i + 92*ldb];
    1250:	89 95 04 dc ff ff    	mov    DWORD PTR [rbp-0x23fc],edx
        c[i + 23*ldc] = dotp;
        dotp = 16.0*b[i + 2*ldb] + 12.0*b[i + 79*ldb] + 25.0*b[i + 103*ldb] + 9.0*b[i + 116*ldb];
    1256:	41 6b d7 74          	imul   edx,r15d,0x74
        dotp = 23.0*b[i + 25*ldb] + 29.0*b[i + 77*ldb] + 2.0*b[i + 86*ldb] + 26.0*b[i + 99*ldb];
    125a:	89 bd bc dc ff ff    	mov    DWORD PTR [rbp-0x2344],edi
        dotp = 8.0*b[i + 14*ldb] + 20.0*b[i + 42*ldb] + 19.0*b[i + 45*ldb] + 2.0*b[i + 84*ldb] + 7.0*b[i + 90*ldb] + 6.0*b[i + 94*ldb] + 23.0*b[i + 107*ldb];
    1260:	41 6b ff 2a          	imul   edi,r15d,0x2a
        dotp = 16.0*b[i + 2*ldb] + 12.0*b[i + 79*ldb] + 25.0*b[i + 103*ldb] + 9.0*b[i + 116*ldb];
    1264:	89 95 a4 dc ff ff    	mov    DWORD PTR [rbp-0x235c],edx
        c[i + 24*ldc] = dotp;
        dotp = 27.0*b[i + 0*ldb] + 11.0*b[i + 24*ldb] + 30.0*b[i + 72*ldb] + 30.0*b[i + 85*ldb] + 17.0*b[i + 88*ldb] + 28.0*b[i + 118*ldb];
    126a:	41 6b d7 55          	imul   edx,r15d,0x55
        dotp = 8.0*b[i + 14*ldb] + 20.0*b[i + 42*ldb] + 19.0*b[i + 45*ldb] + 2.0*b[i + 84*ldb] + 7.0*b[i + 90*ldb] + 6.0*b[i + 94*ldb] + 23.0*b[i + 107*ldb];
    126e:	89 bd b8 dc ff ff    	mov    DWORD PTR [rbp-0x2348],edi
    1274:	41 6b ff 2d          	imul   edi,r15d,0x2d
        dotp = 27.0*b[i + 0*ldb] + 11.0*b[i + 24*ldb] + 30.0*b[i + 72*ldb] + 30.0*b[i + 85*ldb] + 17.0*b[i + 88*ldb] + 28.0*b[i + 118*ldb];
    1278:	89 95 a0 dc ff ff    	mov    DWORD PTR [rbp-0x2360],edx
        dotp = 8.0*b[i + 14*ldb] + 20.0*b[i + 42*ldb] + 19.0*b[i + 45*ldb] + 2.0*b[i + 84*ldb] + 7.0*b[i + 90*ldb] + 6.0*b[i + 94*ldb] + 23.0*b[i + 107*ldb];
    127e:	89 bd 90 db ff ff    	mov    DWORD PTR [rbp-0x2470],edi
        dotp = 20.0*b[i + 13*ldb] + 19.0*b[i + 17*ldb] + 1.0*b[i + 26*ldb] + 9.0*b[i + 49*ldb] + 10.0*b[i + 51*ldb] + 15.0*b[i + 59*ldb] + 10.0*b[i + 79*ldb] + 1.0*b[i + 97*ldb] + 7.0*b[i + 114*ldb];
    1284:	41 6b ff 31          	imul   edi,r15d,0x31
    1288:	89 bd b4 dc ff ff    	mov    DWORD PTR [rbp-0x234c],edi
        dotp = 27.0*b[i + 27*ldb] + 10.0*b[i + 51*ldb] + 27.0*b[i + 72*ldb] + 27.0*b[i + 86*ldb] + 30.0*b[i + 87*ldb] + 21.0*b[i + 90*ldb] + 4.0*b[i + 95*ldb] + 4.0*b[i + 96*ldb];
    128e:	8d 3c dd 00 00 00 00 	lea    edi,[rbx*8+0x0]
    1295:	89 bd 3c dd ff ff    	mov    DWORD PTR [rbp-0x22c4],edi
    129b:	8b bd 3c dd ff ff    	mov    edi,DWORD PTR [rbp-0x22c4]
    12a1:	01 df                	add    edi,ebx
    12a3:	89 bd 18 dc ff ff    	mov    DWORD PTR [rbp-0x23e8],edi
    12a9:	41 6b ff 5f          	imul   edi,r15d,0x5f
    12ad:	89 bd b0 dc ff ff    	mov    DWORD PTR [rbp-0x2350],edi
        dotp = 24.0*b[i + 33*ldb] + 9.0*b[i + 43*ldb] + 27.0*b[i + 57*ldb] + 3.0*b[i + 76*ldb] + 18.0*b[i + 80*ldb] + 6.0*b[i + 96*ldb] + 5.0*b[i + 123*ldb];
    12b3:	43 8d 3c 39          	lea    edi,[r9+r15*1]
        c[i + 33*ldc] = dotp;
        dotp = 10.0*b[i + 6*ldb] + 27.0*b[i + 21*ldb] + 7.0*b[i + 57*ldb] + 30.0*b[i + 78*ldb] + 19.0*b[i + 93*ldb];
        c[i + 34*ldc] = dotp;
        dotp = 17.0*b[i + 20*ldb] + 5.0*b[i + 56*ldb] + 1.0*b[i + 69*ldb] + 12.0*b[i + 88*ldb] + 8.0*b[i + 116*ldb];
        c[i + 35*ldc] = dotp;
        dotp = 9.0*b[i + 7*ldb] + 19.0*b[i + 20*ldb] + 18.0*b[i + 32*ldb] + 20.0*b[i + 72*ldb] + 18.0*b[i + 87*ldb] + 27.0*b[i + 88*ldb] + 31.0*b[i + 113*ldb];
    12b7:	45 89 d1             	mov    r9d,r10d
        dotp = 24.0*b[i + 33*ldb] + 9.0*b[i + 43*ldb] + 27.0*b[i + 57*ldb] + 3.0*b[i + 76*ldb] + 18.0*b[i + 80*ldb] + 6.0*b[i + 96*ldb] + 5.0*b[i + 123*ldb];
    12ba:	89 bd 14 dc ff ff    	mov    DWORD PTR [rbp-0x23ec],edi
    12c0:	41 6b ff 7b          	imul   edi,r15d,0x7b
        dotp = 9.0*b[i + 7*ldb] + 19.0*b[i + 20*ldb] + 18.0*b[i + 32*ldb] + 20.0*b[i + 72*ldb] + 18.0*b[i + 87*ldb] + 27.0*b[i + 88*ldb] + 31.0*b[i + 113*ldb];
    12c4:	45 29 f9             	sub    r9d,r15d
        dotp = 24.0*b[i + 33*ldb] + 9.0*b[i + 43*ldb] + 27.0*b[i + 57*ldb] + 3.0*b[i + 76*ldb] + 18.0*b[i + 80*ldb] + 6.0*b[i + 96*ldb] + 5.0*b[i + 123*ldb];
    12c7:	89 bd ac dc ff ff    	mov    DWORD PTR [rbp-0x2354],edi
        dotp = 13.0*b[i + 15*ldb] + 21.0*b[i + 40*ldb] + 11.0*b[i + 96*ldb] + 28.0*b[i + 102*ldb] + 15.0*b[i + 105*ldb] + 25.0*b[i + 107*ldb] + 2.0*b[i + 117*ldb];
    12cd:	8d 3c c5 00 00 00 00 	lea    edi,[rax*8+0x0]
        dotp = 29.0*b[i + 37*ldb] + 19.0*b[i + 38*ldb] + 14.0*b[i + 46*ldb] + 25.0*b[i + 47*ldb] + 1.0*b[i + 49*ldb] + 8.0*b[i + 52*ldb] + 9.0*b[i + 58*ldb] + 20.0*b[i + 65*ldb] + 18.0*b[i + 115*ldb] + 5.0*b[i + 125*ldb];
    12d4:	42 8d 04 ad 00 00 00 	lea    eax,[r13*4+0x0]
    12db:	00 
    12dc:	44 01 f8             	add    eax,r15d
        dotp = 13.0*b[i + 15*ldb] + 21.0*b[i + 40*ldb] + 11.0*b[i + 96*ldb] + 28.0*b[i + 102*ldb] + 15.0*b[i + 105*ldb] + 25.0*b[i + 107*ldb] + 2.0*b[i + 117*ldb];
    12df:	89 bd 0c dc ff ff    	mov    DWORD PTR [rbp-0x23f4],edi
        dotp = 31.0*b[i + 6*ldb] + 13.0*b[i + 11*ldb] + 2.0*b[i + 13*ldb] + 21.0*b[i + 26*ldb] + 7.0*b[i + 31*ldb] + 23.0*b[i + 41*ldb] + 2.0*b[i + 59*ldb] + 14.0*b[i + 69*ldb] + 22.0*b[i + 72*ldb] + 11.0*b[i + 84*ldb] + 26.0*b[i + 86*ldb] + 15.0*b[i + 117*ldb] + 17.0*b[i + 122*ldb];
    12e5:	44 01 ff             	add    edi,r15d
        dotp = 29.0*b[i + 37*ldb] + 19.0*b[i + 38*ldb] + 14.0*b[i + 46*ldb] + 25.0*b[i + 47*ldb] + 1.0*b[i + 49*ldb] + 8.0*b[i + 52*ldb] + 9.0*b[i + 58*ldb] + 20.0*b[i + 65*ldb] + 18.0*b[i + 115*ldb] + 5.0*b[i + 125*ldb];
    12e8:	89 85 00 dc ff ff    	mov    DWORD PTR [rbp-0x2400],eax
    12ee:	41 6b c7 26          	imul   eax,r15d,0x26
    12f2:	89 85 9c dc ff ff    	mov    DWORD PTR [rbp-0x2364],eax
    12f8:	41 6b c7 2e          	imul   eax,r15d,0x2e
        dotp = 31.0*b[i + 6*ldb] + 13.0*b[i + 11*ldb] + 2.0*b[i + 13*ldb] + 21.0*b[i + 26*ldb] + 7.0*b[i + 31*ldb] + 23.0*b[i + 41*ldb] + 2.0*b[i + 59*ldb] + 14.0*b[i + 69*ldb] + 22.0*b[i + 72*ldb] + 11.0*b[i + 84*ldb] + 26.0*b[i + 86*ldb] + 15.0*b[i + 117*ldb] + 17.0*b[i + 122*ldb];
    12fc:	89 bd 08 d0 ff ff    	mov    DWORD PTR [rbp-0x2ff8],edi
        dotp = 9.0*b[i + 7*ldb] + 19.0*b[i + 20*ldb] + 18.0*b[i + 32*ldb] + 20.0*b[i + 72*ldb] + 18.0*b[i + 87*ldb] + 27.0*b[i + 88*ldb] + 31.0*b[i + 113*ldb];
    1302:	44 89 8d 04 d0 ff ff 	mov    DWORD PTR [rbp-0x2ffc],r9d
        dotp = 29.0*b[i + 37*ldb] + 19.0*b[i + 38*ldb] + 14.0*b[i + 46*ldb] + 25.0*b[i + 47*ldb] + 1.0*b[i + 49*ldb] + 8.0*b[i + 52*ldb] + 9.0*b[i + 58*ldb] + 20.0*b[i + 65*ldb] + 18.0*b[i + 115*ldb] + 5.0*b[i + 125*ldb];
    1309:	89 85 98 dc ff ff    	mov    DWORD PTR [rbp-0x2368],eax
    130f:	41 6b c7 3a          	imul   eax,r15d,0x3a
    1313:	89 85 94 dc ff ff    	mov    DWORD PTR [rbp-0x236c],eax
    1319:	43 8d 04 3b          	lea    eax,[r11+r15*1]
    131d:	89 85 fc db ff ff    	mov    DWORD PTR [rbp-0x2404],eax
    1323:	41 6b c7 73          	imul   eax,r15d,0x73
    1327:	89 85 90 dc ff ff    	mov    DWORD PTR [rbp-0x2370],eax
        dotp = 30.0*b[i + 17*ldb] + 28.0*b[i + 20*ldb] + 14.0*b[i + 59*ldb] + 13.0*b[i + 111*ldb] + 14.0*b[i + 122*ldb];
    132d:	41 6b c7 7a          	imul   eax,r15d,0x7a
    1331:	89 85 8c dc ff ff    	mov    DWORD PTR [rbp-0x2374],eax
        dotp = 9.0*b[i + 1*ldb] + 26.0*b[i + 3*ldb] + 4.0*b[i + 4*ldb] + 10.0*b[i + 6*ldb] + 23.0*b[i + 19*ldb] + 7.0*b[i + 23*ldb] + 13.0*b[i + 39*ldb] + 23.0*b[i + 88*ldb] + 13.0*b[i + 102*ldb];
    1337:	8d 04 1b             	lea    eax,[rbx+rbx*1]
    133a:	89 85 68 db ff ff    	mov    DWORD PTR [rbp-0x2498],eax
    1340:	43 8d 04 3c          	lea    eax,[r12+r15*1]
    1344:	89 85 54 d4 ff ff    	mov    DWORD PTR [rbp-0x2bac],eax
    134a:	41 6b c7 27          	imul   eax,r15d,0x27
    134e:	89 85 88 dc ff ff    	mov    DWORD PTR [rbp-0x2378],eax
        dotp = 10.0*b[i + 6*ldb] + 27.0*b[i + 21*ldb] + 7.0*b[i + 57*ldb] + 30.0*b[i + 78*ldb] + 19.0*b[i + 93*ldb];
    1354:	41 6b c7 5d          	imul   eax,r15d,0x5d
    1358:	89 85 84 dc ff ff    	mov    DWORD PTR [rbp-0x237c],eax
        dotp = 9.0*b[i + 7*ldb] + 19.0*b[i + 20*ldb] + 18.0*b[i + 32*ldb] + 20.0*b[i + 72*ldb] + 18.0*b[i + 87*ldb] + 27.0*b[i + 88*ldb] + 31.0*b[i + 113*ldb];
    135e:	41 6b c7 71          	imul   eax,r15d,0x71
    1362:	89 85 80 dc ff ff    	mov    DWORD PTR [rbp-0x2380],eax
        c[i + 36*ldc] = dotp;
        dotp = 31.0*b[i + 7*ldb] + 14.0*b[i + 52*ldb] + 23.0*b[i + 85*ldb] + 27.0*b[i + 118*ldb];
        c[i + 37*ldc] = dotp;
        dotp = 11.0*b[i + 26*ldb] + 31.0*b[i + 29*ldb] + 29.0*b[i + 40*ldb] + 3.0*b[i + 44*ldb] + 20.0*b[i + 63*ldb] + 18.0*b[i + 110*ldb];
        c[i + 38*ldc] = dotp;
        dotp = 12.0*b[i + 14*ldb] + 20.0*b[i + 55*ldb] + 28.0*b[i + 58*ldb] + 9.0*b[i + 60*ldb] + 24.0*b[i + 67*ldb] + 8.0*b[i + 83*ldb] + 21.0*b[i + 106*ldb] + 4.0*b[i + 115*ldb];
    1368:	41 6b c7 3c          	imul   eax,r15d,0x3c
    136c:	89 85 7c dc ff ff    	mov    DWORD PTR [rbp-0x2384],eax
        c[i + 39*ldc] = dotp;
        dotp = 1.0*b[i + 12*ldb] + 28.0*b[i + 16*ldb] + 29.0*b[i + 29*ldb] + 20.0*b[i + 50*ldb] + 28.0*b[i + 67*ldb] + 22.0*b[i + 69*ldb] + 30.0*b[i + 117*ldb];
    1372:	41 6b c7 32          	imul   eax,r15d,0x32
    1376:	89 85 78 dc ff ff    	mov    DWORD PTR [rbp-0x2388],eax
        c[i + 40*ldc] = dotp;
        dotp = 9.0*b[i + 16*ldb] + 30.0*b[i + 40*ldb] + 22.0*b[i + 55*ldb] + 24.0*b[i + 58*ldb] + 26.0*b[i + 65*ldb] + 10.0*b[i + 68*ldb] + 9.0*b[i + 115*ldb];
        c[i + 41*ldc] = dotp;
        dotp = 13.0*b[i + 4*ldb] + 10.0*b[i + 5*ldb] + 15.0*b[i + 114*ldb];
        c[i + 42*ldc] = dotp;
        dotp = 9.0*b[i + 31*ldb] + 30.0*b[i + 47*ldb] + 11.0*b[i + 53*ldb] + 12.0*b[i + 78*ldb] + 4.0*b[i + 91*ldb] + 9.0*b[i + 105*ldb];
    137c:	41 6b c7 35          	imul   eax,r15d,0x35
    1380:	89 85 88 db ff ff    	mov    DWORD PTR [rbp-0x2478],eax
        c[i + 43*ldc] = dotp;
        dotp = 6.0*b[i + 29*ldb] + 15.0*b[i + 46*ldb] + 1.0*b[i + 54*ldb] + 26.0*b[i + 75*ldb] + 16.0*b[i + 108*ldb] + 12.0*b[i + 116*ldb];
    1386:	41 6b c7 4b          	imul   eax,r15d,0x4b
    138a:	89 85 74 dc ff ff    	mov    DWORD PTR [rbp-0x238c],eax
    1390:	41 6b c7 6c          	imul   eax,r15d,0x6c
    1394:	89 85 70 dc ff ff    	mov    DWORD PTR [rbp-0x2390],eax
        c[i + 44*ldc] = dotp;
        dotp = 31.0*b[i + 2*ldb] + 9.0*b[i + 14*ldb] + 11.0*b[i + 57*ldb] + 13.0*b[i + 62*ldb] + 9.0*b[i + 64*ldb] + 28.0*b[i + 70*ldb] + 2.0*b[i + 100*ldb] + 31.0*b[i + 101*ldb] + 30.0*b[i + 106*ldb] + 13.0*b[i + 112*ldb];
    139a:	41 6b c7 3e          	imul   eax,r15d,0x3e
    139e:	89 85 6c dc ff ff    	mov    DWORD PTR [rbp-0x2394],eax
    13a4:	41 6b c7 65          	imul   eax,r15d,0x65
    13a8:	89 85 68 dc ff ff    	mov    DWORD PTR [rbp-0x2398],eax
        c[i + 53*ldc] = dotp;
        dotp = 2.0*b[i + 2*ldb] + 30.0*b[i + 5*ldb] + 7.0*b[i + 8*ldb] + 19.0*b[i + 13*ldb] + 9.0*b[i + 69*ldb] + 1.0*b[i + 96*ldb] + 2.0*b[i + 98*ldb] + 19.0*b[i + 123*ldb];
        c[i + 54*ldc] = dotp;
        dotp = 25.0*b[i + 41*ldb] + 30.0*b[i + 66*ldb] + 5.0*b[i + 76*ldb] + 6.0*b[i + 84*ldb] + 27.0*b[i + 87*ldb] + 2.0*b[i + 96*ldb] + 7.0*b[i + 102*ldb] + 6.0*b[i + 114*ldb];
        c[i + 55*ldc] = dotp;
        dotp = 22.0*b[i + 15*ldb] + 27.0*b[i + 62*ldb] + 31.0*b[i + 76*ldb] + 22.0*b[i + 90*ldb] + 3.0*b[i + 97*ldb] + 6.0*b[i + 109*ldb];
    13ae:	41 6b c7 6d          	imul   eax,r15d,0x6d
    13b2:	89 85 64 dc ff ff    	mov    DWORD PTR [rbp-0x239c],eax
        c[i + 60*ldc] = dotp;
        dotp = 14.0*b[i + 41*ldb] + 5.0*b[i + 45*ldb] + 7.0*b[i + 52*ldb] + 20.0*b[i + 79*ldb];
        c[i + 61*ldc] = dotp;
        dotp = 31.0*b[i + 2*ldb] + 1.0*b[i + 16*ldb] + 26.0*b[i + 17*ldb] + 14.0*b[i + 32*ldb] + 27.0*b[i + 36*ldb] + 15.0*b[i + 52*ldb] + 16.0*b[i + 62*ldb] + 9.0*b[i + 114*ldb];
        c[i + 62*ldc] = dotp;
        dotp = 24.0*b[i + 40*ldb] + 24.0*b[i + 42*ldb] + 10.0*b[i + 44*ldb] + 26.0*b[i + 47*ldb] + 4.0*b[i + 71*ldb] + 5.0*b[i + 98*ldb];
    13b8:	41 6b c7 47          	imul   eax,r15d,0x47
    13bc:	89 85 60 dc ff ff    	mov    DWORD PTR [rbp-0x23a0],eax
        c[i + 75*ldc] = dotp;
        dotp = 9.0*b[i + 52*ldb] + 13.0*b[i + 54*ldb] + 15.0*b[i + 105*ldb];
        c[i + 76*ldc] = dotp;
        dotp = 15.0*b[i + 0*ldb] + 15.0*b[i + 8*ldb] + 28.0*b[i + 11*ldb] + 10.0*b[i + 63*ldb] + 26.0*b[i + 72*ldb] + 4.0*b[i + 78*ldb] + 10.0*b[i + 89*ldb];
        c[i + 77*ldc] = dotp;
        dotp = 7.0*b[i + 8*ldb] + 6.0*b[i + 29*ldb] + 10.0*b[i + 32*ldb] + 29.0*b[i + 61*ldb] + 8.0*b[i + 70*ldb] + 6.0*b[i + 96*ldb] + 19.0*b[i + 111*ldb] + 14.0*b[i + 125*ldb];
    13c2:	41 6b c7 3d          	imul   eax,r15d,0x3d
    13c6:	89 85 5c dc ff ff    	mov    DWORD PTR [rbp-0x23a4],eax
        c[i + 78*ldc] = dotp;
        dotp = 21.0*b[i + 1*ldb] + 23.0*b[i + 25*ldb] + 24.0*b[i + 68*ldb] + 9.0*b[i + 103*ldb] + 5.0*b[i + 113*ldb];
        c[i + 79*ldc] = dotp;
        dotp = 18.0*b[i + 13*ldb] + 19.0*b[i + 21*ldb] + 13.0*b[i + 34*ldb] + 11.0*b[i + 61*ldb] + 9.0*b[i + 73*ldb] + 27.0*b[i + 87*ldb];
    13cc:	41 6b c7 22          	imul   eax,r15d,0x22
    13d0:	89 85 58 dc ff ff    	mov    DWORD PTR [rbp-0x23a8],eax
    13d6:	49 63 c5             	movsxd rax,r13d
    13d9:	48 89 85 a0 d7 ff ff 	mov    QWORD PTR [rbp-0x2860],rax
    13e0:	48 8d 04 c6          	lea    rax,[rsi+rax*8]
    13e4:	48 c1 e8 03          	shr    rax,0x3
    13e8:	48 f7 d8             	neg    rax
    13eb:	89 c3                	mov    ebx,eax
    13ed:	41 8d 46 ff          	lea    eax,[r14-0x1]
    13f1:	83 e3 07             	and    ebx,0x7
    13f4:	8d 53 07             	lea    edx,[rbx+0x7]
    13f7:	39 c2                	cmp    edx,eax
    13f9:	0f 87 11 e0 00 00    	ja     f410 <gimmik_mm+0xe570>
    13ff:	85 db                	test   ebx,ebx
    1401:	0f 84 e9 df 00 00    	je     f3f0 <gimmik_mm+0xe550>
    1407:	62 61 ff 08 10 35 b7 	vmovsd xmm30,QWORD PTR [rip+0xedb7]        # 101c8 <_IO_stdin_used+0x2c8>
    140e:	ed 00 00 
    1411:	45 31 db             	xor    r11d,r11d
    1414:	31 c0                	xor    eax,eax
    1416:	62 e1 ff 08 10 2d 60 	vmovsd xmm21,QWORD PTR [rip+0xee60]        # 10280 <_IO_stdin_used+0x380>
    141d:	ee 00 00 
    1420:	c5 fb 10 1d 98 ed 00 	vmovsd xmm3,QWORD PTR [rip+0xed98]        # 101c0 <_IO_stdin_used+0x2c0>
    1427:	00 
    1428:	c5 7b 10 15 a0 ed 00 	vmovsd xmm10,QWORD PTR [rip+0xeda0]        # 101d0 <_IO_stdin_used+0x2d0>
    142f:	00 
    1430:	62 61 ff 08 11 75 e2 	vmovsd QWORD PTR [rbp-0xf0],xmm30
    1437:	62 61 ff 08 10 35 0f 	vmovsd xmm30,QWORD PTR [rip+0xee0f]        # 10250 <_IO_stdin_used+0x350>
    143e:	ee 00 00 
    1441:	62 e1 ff 08 10 3d 8d 	vmovsd xmm23,QWORD PTR [rip+0xed8d]        # 101d8 <_IO_stdin_used+0x2d8>
    1448:	ed 00 00 
    144b:	62 e1 ff 08 11 6d d2 	vmovsd QWORD PTR [rbp-0x170],xmm21
    1452:	62 e1 ff 08 10 2d 2c 	vmovsd xmm21,QWORD PTR [rip+0xee2c]        # 10288 <_IO_stdin_used+0x388>
    1459:	ee 00 00 
    145c:	62 e1 ff 08 10 15 7a 	vmovsd xmm18,QWORD PTR [rip+0xed7a]        # 101e0 <_IO_stdin_used+0x2e0>
    1463:	ed 00 00 
    1466:	62 61 ff 08 11 75 ea 	vmovsd QWORD PTR [rbp-0xb0],xmm30
    146d:	c5 7b 10 1d 73 ed 00 	vmovsd xmm11,QWORD PTR [rip+0xed73]        # 101e8 <_IO_stdin_used+0x2e8>
    1474:	00 
    1475:	62 e1 ff 08 10 05 71 	vmovsd xmm16,QWORD PTR [rip+0xed71]        # 101f0 <_IO_stdin_used+0x2f0>
    147c:	ed 00 00 
    147f:	c5 7b 10 05 71 ed 00 	vmovsd xmm8,QWORD PTR [rip+0xed71]        # 101f8 <_IO_stdin_used+0x2f8>
    1486:	00 
    1487:	c5 fb 10 2d 71 ed 00 	vmovsd xmm5,QWORD PTR [rip+0xed71]        # 10200 <_IO_stdin_used+0x300>
    148e:	00 
    148f:	62 e1 ff 08 11 6d f2 	vmovsd QWORD PTR [rbp-0x70],xmm21
    1496:	c5 fb 10 0d 6a ed 00 	vmovsd xmm1,QWORD PTR [rip+0xed6a]        # 10208 <_IO_stdin_used+0x308>
    149d:	00 
    149e:	62 e1 ff 08 10 0d 68 	vmovsd xmm17,QWORD PTR [rip+0xed68]        # 10210 <_IO_stdin_used+0x310>
    14a5:	ed 00 00 
    14a8:	c5 7b 10 25 68 ed 00 	vmovsd xmm12,QWORD PTR [rip+0xed68]        # 10218 <_IO_stdin_used+0x318>
    14af:	00 
    14b0:	c5 7b 10 3d 68 ed 00 	vmovsd xmm15,QWORD PTR [rip+0xed68]        # 10220 <_IO_stdin_used+0x320>
    14b7:	00 
    14b8:	62 61 ff 08 10 1d 66 	vmovsd xmm27,QWORD PTR [rip+0xed66]        # 10228 <_IO_stdin_used+0x328>
    14bf:	ed 00 00 
    14c2:	62 61 ff 08 10 25 64 	vmovsd xmm28,QWORD PTR [rip+0xed64]        # 10230 <_IO_stdin_used+0x330>
    14c9:	ed 00 00 
    14cc:	62 e1 ff 08 10 1d 62 	vmovsd xmm19,QWORD PTR [rip+0xed62]        # 10238 <_IO_stdin_used+0x338>
    14d3:	ed 00 00 
    14d6:	62 61 ff 08 10 0d 60 	vmovsd xmm25,QWORD PTR [rip+0xed60]        # 10240 <_IO_stdin_used+0x340>
    14dd:	ed 00 00 
    14e0:	62 61 ff 08 10 05 5e 	vmovsd xmm24,QWORD PTR [rip+0xed5e]        # 10248 <_IO_stdin_used+0x348>
    14e7:	ed 00 00 
    14ea:	c5 fb 10 25 66 ed 00 	vmovsd xmm4,QWORD PTR [rip+0xed66]        # 10258 <_IO_stdin_used+0x358>
    14f1:	00 
    14f2:	62 e1 ff 08 10 25 64 	vmovsd xmm20,QWORD PTR [rip+0xed64]        # 10260 <_IO_stdin_used+0x360>
    14f9:	ed 00 00 
    14fc:	62 61 ff 08 10 35 62 	vmovsd xmm30,QWORD PTR [rip+0xed62]        # 10268 <_IO_stdin_used+0x368>
    1503:	ed 00 00 
    1506:	c5 fb 10 05 62 ed 00 	vmovsd xmm0,QWORD PTR [rip+0xed62]        # 10270 <_IO_stdin_used+0x370>
    150d:	00 
    150e:	62 61 ff 08 10 2d 60 	vmovsd xmm29,QWORD PTR [rip+0xed60]        # 10278 <_IO_stdin_used+0x378>
    1515:	ed 00 00 
    1518:	c5 7b 10 2d 70 ed 00 	vmovsd xmm13,QWORD PTR [rip+0xed70]        # 10290 <_IO_stdin_used+0x390>
    151f:	00 
    1520:	c5 7b 10 35 70 ed 00 	vmovsd xmm14,QWORD PTR [rip+0xed70]        # 10298 <_IO_stdin_used+0x398>
    1527:	00 
    1528:	62 e1 ff 08 10 2d 6e 	vmovsd xmm21,QWORD PTR [rip+0xed6e]        # 102a0 <_IO_stdin_used+0x3a0>
    152f:	ed 00 00 
    1532:	62 e1 ff 08 11 6d da 	vmovsd QWORD PTR [rbp-0x130],xmm21
    1539:	0f 1f 80 00 00 00 00 	nop    DWORD PTR [rax+0x0]
        dotp = 28.0*b[i + 9*ldb] + 3.0*b[i + 30*ldb] + 26.0*b[i + 67*ldb] + 10.0*b[i + 82*ldb] + 2.0*b[i + 112*ldb] + 18.0*b[i + 117*ldb];
    1540:	41 8d 54 05 00       	lea    edx,[r13+rax*1+0x0]
        c[i + 0*ldc] = dotp;
    1545:	4c 63 d0             	movsxd r10,eax
        dotp = 28.0*b[i + 9*ldb] + 3.0*b[i + 30*ldb] + 26.0*b[i + 67*ldb] + 10.0*b[i + 82*ldb] + 2.0*b[i + 112*ldb] + 18.0*b[i + 117*ldb];
    1548:	48 63 d2             	movsxd rdx,edx
    154b:	c5 fb 10 3c d6       	vmovsd xmm7,QWORD PTR [rsi+rdx*8]
    1550:	8b 95 f8 db ff ff    	mov    edx,DWORD PTR [rbp-0x2408]
    1556:	c5 fb 11 bd 90 e6 ff 	vmovsd QWORD PTR [rbp-0x1970],xmm7
    155d:	ff 
    155e:	c5 ab 59 f7          	vmulsd xmm6,xmm10,xmm7
    1562:	01 c2                	add    edx,eax
    1564:	48 63 d2             	movsxd rdx,edx
    1567:	62 61 ff 08 10 14 d6 	vmovsd xmm26,QWORD PTR [rsi+rdx*8]
    156e:	8b 95 f4 db ff ff    	mov    edx,DWORD PTR [rbp-0x240c]
    1574:	01 c2                	add    edx,eax
    1576:	62 91 fd 48 28 d2    	vmovapd zmm2,zmm26
    157c:	62 61 ff 08 11 95 10 	vmovsd QWORD PTR [rbp-0x12f0],xmm26
    1583:	ed ff ff 
    1586:	62 61 ff 08 10 55 e2 	vmovsd xmm26,QWORD PTR [rbp-0xf0]
    158d:	48 63 d2             	movsxd rdx,edx
    1590:	62 e1 ff 08 10 2c d6 	vmovsd xmm21,QWORD PTR [rsi+rdx*8]
    1597:	8b 95 f0 db ff ff    	mov    edx,DWORD PTR [rbp-0x2410]
    159d:	62 91 ef 08 59 d2    	vmulsd xmm2,xmm2,xmm26
    15a3:	62 e1 ff 08 11 ad 50 	vmovsd QWORD PTR [rbp-0x12b0],xmm21
    15aa:	ed ff ff 
    15ad:	62 21 e7 08 59 fd    	vmulsd xmm31,xmm3,xmm21
    15b3:	01 c2                	add    edx,eax
    15b5:	48 63 d2             	movsxd rdx,edx
    15b8:	c5 7b 10 0c d6       	vmovsd xmm9,QWORD PTR [rsi+rdx*8]
    15bd:	8b 95 ec db ff ff    	mov    edx,DWORD PTR [rbp-0x2414]
    15c3:	c5 eb 58 d6          	vaddsd xmm2,xmm2,xmm6
    15c7:	c5 7b 11 8d 90 e2 ff 	vmovsd QWORD PTR [rbp-0x1d70],xmm9
    15ce:	ff 
    15cf:	62 d1 c7 00 59 f1    	vmulsd xmm6,xmm23,xmm9
    15d5:	01 c2                	add    edx,eax
    15d7:	48 63 d2             	movsxd rdx,edx
    15da:	62 81 fd 48 28 ef    	vmovapd zmm21,zmm31
    15e0:	62 61 ff 08 10 3c d6 	vmovsd xmm31,QWORD PTR [rsi+rdx*8]
    15e7:	8b 95 e8 db ff ff    	mov    edx,DWORD PTR [rbp-0x2418]
    15ed:	62 b1 ef 08 58 d5    	vaddsd xmm2,xmm2,xmm21
    15f3:	62 e1 ff 08 11 ad d0 	vmovsd QWORD PTR [rbp-0x2530],xmm21
    15fa:	da ff ff 
    15fd:	62 61 ff 08 11 bd 90 	vmovsd QWORD PTR [rbp-0x1270],xmm31
    1604:	ed ff ff 
    1607:	01 c2                	add    edx,eax
    1609:	48 63 d2             	movsxd rdx,edx
    160c:	c5 eb 58 f6          	vaddsd xmm6,xmm2,xmm6
    1610:	62 91 87 00 58 d7    	vaddsd xmm2,xmm31,xmm31
    1616:	62 e1 ff 08 10 34 d6 	vmovsd xmm22,QWORD PTR [rsi+rdx*8]
        dotp = 1.0*b[i + 2*ldb] + 16.0*b[i + 8*ldb] + 12.0*b[i + 14*ldb] + 8.0*b[i + 17*ldb] + 28.0*b[i + 36*ldb] + 30.0*b[i + 57*ldb] + 14.0*b[i + 97*ldb] + 15.0*b[i + 117*ldb] + 2.0*b[i + 118*ldb] + 6.0*b[i + 120*ldb] + 2.0*b[i + 126*ldb];
    161d:	8b 95 e4 db ff ff    	mov    edx,DWORD PTR [rbp-0x241c]
    1623:	01 c2                	add    edx,eax
        dotp = 28.0*b[i + 9*ldb] + 3.0*b[i + 30*ldb] + 26.0*b[i + 67*ldb] + 10.0*b[i + 82*ldb] + 2.0*b[i + 112*ldb] + 18.0*b[i + 117*ldb];
    1625:	c5 cb 58 d2          	vaddsd xmm2,xmm6,xmm2
    1629:	62 b1 ef 00 59 f6    	vmulsd xmm6,xmm18,xmm22
        dotp = 1.0*b[i + 2*ldb] + 16.0*b[i + 8*ldb] + 12.0*b[i + 14*ldb] + 8.0*b[i + 17*ldb] + 28.0*b[i + 36*ldb] + 30.0*b[i + 57*ldb] + 14.0*b[i + 97*ldb] + 15.0*b[i + 117*ldb] + 2.0*b[i + 118*ldb] + 6.0*b[i + 120*ldb] + 2.0*b[i + 126*ldb];
    162f:	48 63 d2             	movsxd rdx,edx
    1632:	62 61 ff 08 10 3c d6 	vmovsd xmm31,QWORD PTR [rsi+rdx*8]
    1639:	8b 95 84 db ff ff    	mov    edx,DWORD PTR [rbp-0x247c]
    163f:	01 c2                	add    edx,eax
    1641:	48 63 d2             	movsxd rdx,edx
        dotp = 28.0*b[i + 9*ldb] + 3.0*b[i + 30*ldb] + 26.0*b[i + 67*ldb] + 10.0*b[i + 82*ldb] + 2.0*b[i + 112*ldb] + 18.0*b[i + 117*ldb];
    1644:	c5 eb 58 d6          	vaddsd xmm2,xmm2,xmm6
        dotp = 1.0*b[i + 2*ldb] + 16.0*b[i + 8*ldb] + 12.0*b[i + 14*ldb] + 8.0*b[i + 17*ldb] + 28.0*b[i + 36*ldb] + 30.0*b[i + 57*ldb] + 14.0*b[i + 97*ldb] + 15.0*b[i + 117*ldb] + 2.0*b[i + 118*ldb] + 6.0*b[i + 120*ldb] + 2.0*b[i + 126*ldb];
    1648:	c5 fb 10 34 d6       	vmovsd xmm6,QWORD PTR [rsi+rdx*8]
    164d:	8b 95 e0 db ff ff    	mov    edx,DWORD PTR [rbp-0x2420]
    1653:	01 c2                	add    edx,eax
    1655:	48 63 d2             	movsxd rdx,edx
        c[i + 0*ldc] = dotp;
    1658:	c4 a1 7b 11 14 d1    	vmovsd QWORD PTR [rcx+r10*8],xmm2
        dotp = 1.0*b[i + 2*ldb] + 16.0*b[i + 8*ldb] + 12.0*b[i + 14*ldb] + 8.0*b[i + 17*ldb] + 28.0*b[i + 36*ldb] + 30.0*b[i + 57*ldb] + 14.0*b[i + 97*ldb] + 15.0*b[i + 117*ldb] + 2.0*b[i + 118*ldb] + 6.0*b[i + 120*ldb] + 2.0*b[i + 126*ldb];
    165e:	c5 7b 10 0c d6       	vmovsd xmm9,QWORD PTR [rsi+rdx*8]
    1663:	8b 95 80 db ff ff    	mov    edx,DWORD PTR [rbp-0x2480]
    1669:	c5 7b 11 8d 10 e7 ff 	vmovsd QWORD PTR [rbp-0x18f0],xmm9
    1670:	ff 
    1671:	c4 c1 23 59 d1       	vmulsd xmm2,xmm11,xmm9
    1676:	01 c2                	add    edx,eax
    1678:	48 63 d2             	movsxd rdx,edx
    167b:	62 e1 ff 08 10 2c d6 	vmovsd xmm21,QWORD PTR [rsi+rdx*8]
    1682:	8b 95 7c db ff ff    	mov    edx,DWORD PTR [rbp-0x2484]
    1688:	01 c2                	add    edx,eax
    168a:	c5 fb 11 95 d0 f6 ff 	vmovsd QWORD PTR [rbp-0x930],xmm2
    1691:	ff 
    1692:	48 63 d2             	movsxd rdx,edx
    1695:	c5 fb 10 3c d6       	vmovsd xmm7,QWORD PTR [rsi+rdx*8]
    169a:	8b 95 dc db ff ff    	mov    edx,DWORD PTR [rbp-0x2424]
    16a0:	01 c2                	add    edx,eax
    16a2:	48 63 d2             	movsxd rdx,edx
    16a5:	c5 7b 10 0c d6       	vmovsd xmm9,QWORD PTR [rsi+rdx*8]
    16aa:	8b 95 d8 db ff ff    	mov    edx,DWORD PTR [rbp-0x2428]
    16b0:	c5 fb 11 b5 d0 e6 ff 	vmovsd QWORD PTR [rbp-0x1930],xmm6
    16b7:	ff 
    16b8:	62 e1 ff 08 11 6d 92 	vmovsd QWORD PTR [rbp-0x370],xmm21
        dotp = 8.0*b[i + 20*ldb] + 7.0*b[i + 26*ldb] + 1.0*b[i + 52*ldb] + 4.0*b[i + 76*ldb] + 5.0*b[i + 81*ldb] + 11.0*b[i + 84*ldb] + 26.0*b[i + 103*ldb] + 24.0*b[i + 121*ldb];
    16bf:	44 8b b5 78 db ff ff 	mov    r14d,DWORD PTR [rbp-0x2488]
        dotp = 1.0*b[i + 2*ldb] + 16.0*b[i + 8*ldb] + 12.0*b[i + 14*ldb] + 8.0*b[i + 17*ldb] + 28.0*b[i + 36*ldb] + 30.0*b[i + 57*ldb] + 14.0*b[i + 97*ldb] + 15.0*b[i + 117*ldb] + 2.0*b[i + 118*ldb] + 6.0*b[i + 120*ldb] + 2.0*b[i + 126*ldb];
    16c6:	c5 fb 11 bd d0 ed ff 	vmovsd QWORD PTR [rbp-0x1230],xmm7
    16cd:	ff 
    16ce:	01 c2                	add    edx,eax
    16d0:	62 61 ff 08 11 7d 8a 	vmovsd QWORD PTR [rbp-0x3b0],xmm31
    16d7:	48 63 d2             	movsxd rdx,edx
    16da:	c5 fb 10 14 d6       	vmovsd xmm2,QWORD PTR [rsi+rdx*8]
    16df:	8b 95 d4 db ff ff    	mov    edx,DWORD PTR [rbp-0x242c]
    16e5:	c5 7b 11 8d d0 fc ff 	vmovsd QWORD PTR [rbp-0x330],xmm9
    16ec:	ff 
    16ed:	c5 fb 11 95 10 ee ff 	vmovsd QWORD PTR [rbp-0x11f0],xmm2
    16f4:	ff 
    16f5:	62 b1 ff 00 59 d6    	vmulsd xmm2,xmm16,xmm22
    16fb:	01 c2                	add    edx,eax
    16fd:	48 63 d2             	movsxd rdx,edx
    1700:	c5 fb 11 95 d0 e2 ff 	vmovsd QWORD PTR [rbp-0x1d30],xmm2
    1707:	ff 
    1708:	c5 fb 10 14 d6       	vmovsd xmm2,QWORD PTR [rsi+rdx*8]
    170d:	8b 95 d0 db ff ff    	mov    edx,DWORD PTR [rbp-0x2430]
    1713:	c5 fb 11 95 90 f7 ff 	vmovsd QWORD PTR [rbp-0x870],xmm2
    171a:	ff 
    171b:	01 c2                	add    edx,eax
    171d:	48 63 d2             	movsxd rdx,edx
    1720:	c5 fb 10 14 d6       	vmovsd xmm2,QWORD PTR [rsi+rdx*8]
    1725:	8b 95 cc db ff ff    	mov    edx,DWORD PTR [rbp-0x2434]
    172b:	c5 fb 11 95 10 e3 ff 	vmovsd QWORD PTR [rbp-0x1cf0],xmm2
    1732:	ff 
    1733:	01 c2                	add    edx,eax
    1735:	48 63 d2             	movsxd rdx,edx
    1738:	c5 fb 10 14 d6       	vmovsd xmm2,QWORD PTR [rsi+rdx*8]
        c[i + 1*ldc] = dotp;
    173d:	41 8d 14 00          	lea    edx,[r8+rax*1]
    1741:	4c 63 e2             	movsxd r12,edx
        c[i + 2*ldc] = dotp;
    1744:	44 01 c2             	add    edx,r8d
        dotp = 1.0*b[i + 2*ldb] + 16.0*b[i + 8*ldb] + 12.0*b[i + 14*ldb] + 8.0*b[i + 17*ldb] + 28.0*b[i + 36*ldb] + 30.0*b[i + 57*ldb] + 14.0*b[i + 97*ldb] + 15.0*b[i + 117*ldb] + 2.0*b[i + 118*ldb] + 6.0*b[i + 120*ldb] + 2.0*b[i + 126*ldb];
    1747:	c5 fb 11 95 d0 f7 ff 	vmovsd QWORD PTR [rbp-0x830],xmm2
    174e:	ff 
    174f:	c5 bb 59 d6          	vmulsd xmm2,xmm8,xmm6
    1753:	62 b1 d7 08 59 f5    	vmulsd xmm6,xmm5,xmm21
    1759:	62 e1 ff 08 10 ad 90 	vmovsd xmm21,QWORD PTR [rbp-0x870]
    1760:	f7 ff ff 
    1763:	62 91 ef 08 58 d7    	vaddsd xmm2,xmm2,xmm31
    1769:	c5 eb 58 95 d0 f6 ff 	vaddsd xmm2,xmm2,QWORD PTR [rbp-0x930]
    1770:	ff 
    1771:	c5 eb 58 f6          	vaddsd xmm6,xmm2,xmm6
    1775:	c5 ab 59 d7          	vmulsd xmm2,xmm10,xmm7
    1779:	c5 cb 58 f2          	vaddsd xmm6,xmm6,xmm2
    177d:	c4 c1 73 59 d1       	vmulsd xmm2,xmm1,xmm9
    1782:	c5 cb 58 d2          	vaddsd xmm2,xmm6,xmm2
    1786:	62 f1 f7 00 59 b5 10 	vmulsd xmm6,xmm17,QWORD PTR [rbp-0x11f0]
    178d:	ee ff ff 
    1790:	c5 eb 58 d6          	vaddsd xmm2,xmm2,xmm6
    1794:	62 b1 d7 00 58 f5    	vaddsd xmm6,xmm21,xmm21
    179a:	62 e1 ff 08 10 ad d0 	vmovsd xmm21,QWORD PTR [rbp-0x830]
    17a1:	f7 ff ff 
    17a4:	c5 eb 58 95 d0 e2 ff 	vaddsd xmm2,xmm2,QWORD PTR [rbp-0x1d30]
    17ab:	ff 
    17ac:	c5 eb 58 f6          	vaddsd xmm6,xmm2,xmm6
    17b0:	c5 9b 59 95 10 e3 ff 	vmulsd xmm2,xmm12,QWORD PTR [rbp-0x1cf0]
    17b7:	ff 
    17b8:	c5 cb 58 d2          	vaddsd xmm2,xmm6,xmm2
    17bc:	62 b1 d7 00 58 f5    	vaddsd xmm6,xmm21,xmm21
    17c2:	c5 eb 58 d6          	vaddsd xmm2,xmm2,xmm6
        c[i + 1*ldc] = dotp;
    17c6:	c4 a1 7b 11 14 e1    	vmovsd QWORD PTR [rcx+r12*8],xmm2
        dotp = 8.0*b[i + 20*ldb] + 7.0*b[i + 26*ldb] + 1.0*b[i + 52*ldb] + 4.0*b[i + 76*ldb] + 5.0*b[i + 81*ldb] + 11.0*b[i + 84*ldb] + 26.0*b[i + 103*ldb] + 24.0*b[i + 121*ldb];
    17cc:	45 8d 24 06          	lea    r12d,[r14+rax*1]
    17d0:	44 8b b5 c8 db ff ff 	mov    r14d,DWORD PTR [rbp-0x2438]
    17d7:	4d 63 e4             	movsxd r12,r12d
    17da:	c4 a1 7b 10 3c e6    	vmovsd xmm7,QWORD PTR [rsi+r12*8]
    17e0:	45 8d 24 06          	lea    r12d,[r14+rax*1]
    17e4:	4d 63 e4             	movsxd r12,r12d
    17e7:	c5 fb 11 bd 90 fa ff 	vmovsd QWORD PTR [rbp-0x570],xmm7
    17ee:	ff 
    17ef:	c5 d3 59 d7          	vmulsd xmm2,xmm5,xmm7
    17f3:	c5 fb 11 95 48 dd ff 	vmovsd QWORD PTR [rbp-0x22b8],xmm2
    17fa:	ff 
    17fb:	c4 a1 7b 10 14 e6    	vmovsd xmm2,QWORD PTR [rsi+r12*8]
    1801:	44 8b b5 c4 db ff ff 	mov    r14d,DWORD PTR [rbp-0x243c]
    1808:	45 8d 24 06          	lea    r12d,[r14+rax*1]
    180c:	44 8b b5 c0 db ff ff 	mov    r14d,DWORD PTR [rbp-0x2440]
    1813:	c5 f9 28 f2          	vmovapd xmm6,xmm2
    1817:	c5 fb 11 b5 50 ee ff 	vmovsd QWORD PTR [rbp-0x11b0],xmm6
    181e:	ff 
    181f:	4d 63 e4             	movsxd r12,r12d
    1822:	c4 a1 7b 10 3c e6    	vmovsd xmm7,QWORD PTR [rsi+r12*8]
    1828:	45 8d 24 06          	lea    r12d,[r14+rax*1]
    182c:	44 8b b5 74 db ff ff 	mov    r14d,DWORD PTR [rbp-0x248c]
    1833:	4d 63 e4             	movsxd r12,r12d
    1836:	c4 a1 7b 10 14 e6    	vmovsd xmm2,QWORD PTR [rsi+r12*8]
    183c:	45 8d 24 06          	lea    r12d,[r14+rax*1]
    1840:	44 8b b5 bc db ff ff 	mov    r14d,DWORD PTR [rbp-0x2444]
    1847:	c5 fb 11 bd 10 f8 ff 	vmovsd QWORD PTR [rbp-0x7f0],xmm7
    184e:	ff 
    184f:	4d 63 e4             	movsxd r12,r12d
    1852:	62 e1 fd 48 28 ea    	vmovapd zmm21,zmm2
    1858:	c4 a1 7b 10 14 e6    	vmovsd xmm2,QWORD PTR [rsi+r12*8]
    185e:	45 8d 24 06          	lea    r12d,[r14+rax*1]
    1862:	44 8b b5 b8 db ff ff 	mov    r14d,DWORD PTR [rbp-0x2448]
    1869:	62 e1 ff 08 11 ad 50 	vmovsd QWORD PTR [rbp-0x7b0],xmm21
    1870:	f8 ff ff 
    1873:	4d 63 e4             	movsxd r12,r12d
    1876:	c5 fb 11 95 10 f2 ff 	vmovsd QWORD PTR [rbp-0xdf0],xmm2
    187d:	ff 
    187e:	c4 a1 7b 10 14 e6    	vmovsd xmm2,QWORD PTR [rsi+r12*8]
    1884:	45 8d 24 06          	lea    r12d,[r14+rax*1]
    1888:	44 8b b5 38 dd ff ff 	mov    r14d,DWORD PTR [rbp-0x22c8]
    188f:	4d 63 e4             	movsxd r12,r12d
    1892:	c5 fb 11 95 90 f8 ff 	vmovsd QWORD PTR [rbp-0x770],xmm2
    1899:	ff 
    189a:	62 61 87 08 59 fa    	vmulsd xmm31,xmm15,xmm2
    18a0:	c4 a1 7b 10 14 e6    	vmovsd xmm2,QWORD PTR [rsi+r12*8]
    18a6:	45 8d 24 06          	lea    r12d,[r14+rax*1]
    18aa:	4d 63 e4             	movsxd r12,r12d
        dotp = 11.0*b[i + 22*ldb] + 8.0*b[i + 44*ldb] + 27.0*b[i + 51*ldb] + 16.0*b[i + 80*ldb] + 16.0*b[i + 98*ldb] + 16.0*b[i + 107*ldb] + 25.0*b[i + 114*ldb] + 21.0*b[i + 118*ldb];
    18ad:	44 8b b5 34 dd ff ff 	mov    r14d,DWORD PTR [rbp-0x22cc]
        dotp = 8.0*b[i + 20*ldb] + 7.0*b[i + 26*ldb] + 1.0*b[i + 52*ldb] + 4.0*b[i + 76*ldb] + 5.0*b[i + 81*ldb] + 11.0*b[i + 84*ldb] + 26.0*b[i + 103*ldb] + 24.0*b[i + 121*ldb];
    18b4:	c5 79 28 ca          	vmovapd xmm9,xmm2
    18b8:	c5 7b 11 8d d0 fa ff 	vmovsd QWORD PTR [rbp-0x530],xmm9
    18bf:	ff 
    18c0:	62 f1 a7 00 59 d6    	vmulsd xmm2,xmm27,xmm6
    18c6:	c5 eb 58 95 48 dd ff 	vaddsd xmm2,xmm2,QWORD PTR [rbp-0x22b8]
    18cd:	ff 
    18ce:	62 61 ff 08 11 bd 10 	vmovsd QWORD PTR [rbp-0x8f0],xmm31
    18d5:	f7 ff ff 
    18d8:	62 21 ff 08 10 3c e6 	vmovsd xmm31,QWORD PTR [rsi+r12*8]
        c[i + 2*ldc] = dotp;
    18df:	4c 63 e2             	movsxd r12,edx
        c[i + 3*ldc] = dotp;
    18e2:	44 01 c2             	add    edx,r8d
        dotp = 8.0*b[i + 20*ldb] + 7.0*b[i + 26*ldb] + 1.0*b[i + 52*ldb] + 4.0*b[i + 76*ldb] + 5.0*b[i + 81*ldb] + 11.0*b[i + 84*ldb] + 26.0*b[i + 103*ldb] + 24.0*b[i + 121*ldb];
    18e5:	62 61 ff 08 11 bd 50 	vmovsd QWORD PTR [rbp-0x22b0],xmm31
    18ec:	dd ff ff 
    18ef:	c5 eb 58 f7          	vaddsd xmm6,xmm2,xmm7
    18f3:	62 b1 9f 00 59 d5    	vmulsd xmm2,xmm28,xmm21
    18f9:	c5 cb 58 d2          	vaddsd xmm2,xmm6,xmm2
    18fd:	62 f1 e7 00 59 b5 10 	vmulsd xmm6,xmm19,QWORD PTR [rbp-0xdf0]
    1904:	f2 ff ff 
    1907:	c5 eb 58 d6          	vaddsd xmm2,xmm2,xmm6
    190b:	c4 c1 63 59 f1       	vmulsd xmm6,xmm3,xmm9
    1910:	c5 eb 58 95 10 f7 ff 	vaddsd xmm2,xmm2,QWORD PTR [rbp-0x8f0]
    1917:	ff 
    1918:	c5 eb 58 d6          	vaddsd xmm2,xmm2,xmm6
    191c:	62 91 b7 00 59 f7    	vmulsd xmm6,xmm25,xmm31
    1922:	c5 eb 58 d6          	vaddsd xmm2,xmm2,xmm6
        c[i + 2*ldc] = dotp;
    1926:	c4 a1 7b 11 14 e1    	vmovsd QWORD PTR [rcx+r12*8],xmm2
        dotp = 11.0*b[i + 22*ldb] + 8.0*b[i + 44*ldb] + 27.0*b[i + 51*ldb] + 16.0*b[i + 80*ldb] + 16.0*b[i + 98*ldb] + 16.0*b[i + 107*ldb] + 25.0*b[i + 114*ldb] + 21.0*b[i + 118*ldb];
    192c:	45 8d 24 06          	lea    r12d,[r14+rax*1]
    1930:	44 8b b5 30 dd ff ff 	mov    r14d,DWORD PTR [rbp-0x22d0]
    1937:	4d 63 e4             	movsxd r12,r12d
    193a:	62 21 ff 08 10 3c e6 	vmovsd xmm31,QWORD PTR [rsi+r12*8]
    1941:	45 8d 24 06          	lea    r12d,[r14+rax*1]
    1945:	44 8b b5 2c dd ff ff 	mov    r14d,DWORD PTR [rbp-0x22d4]
    194c:	4d 63 e4             	movsxd r12,r12d
    194f:	c4 a1 7b 10 14 e6    	vmovsd xmm2,QWORD PTR [rsi+r12*8]
    1955:	45 8d 24 06          	lea    r12d,[r14+rax*1]
    1959:	4d 63 e4             	movsxd r12,r12d
    195c:	c4 a1 7b 10 34 e6    	vmovsd xmm6,QWORD PTR [rsi+r12*8]
    1962:	c5 fb 11 95 d0 ec ff 	vmovsd QWORD PTR [rbp-0x1330],xmm2
    1969:	ff 
    196a:	c5 fb 11 b5 d0 f8 ff 	vmovsd QWORD PTR [rbp-0x730],xmm6
    1971:	ff 
    1972:	44 8b b5 44 dc ff ff 	mov    r14d,DWORD PTR [rbp-0x23bc]
    1979:	c5 d3 59 b5 d0 ec ff 	vmulsd xmm6,xmm5,QWORD PTR [rbp-0x1330]
    1980:	ff 
    1981:	62 61 ff 08 11 bd 50 	vmovsd QWORD PTR [rbp-0x1cb0],xmm31
    1988:	e3 ff ff 
    198b:	45 8d 24 06          	lea    r12d,[r14+rax*1]
    198f:	44 8b b5 28 dd ff ff 	mov    r14d,DWORD PTR [rbp-0x22d8]
    1996:	4d 63 e4             	movsxd r12,r12d
    1999:	62 a1 ff 08 10 2c e6 	vmovsd xmm21,QWORD PTR [rsi+r12*8]
    19a0:	45 8d 24 06          	lea    r12d,[r14+rax*1]
    19a4:	4d 63 f4             	movsxd r14,r12d
    19a7:	45 01 ec             	add    r12d,r13d
    19aa:	c4 a1 7b 10 14 f6    	vmovsd xmm2,QWORD PTR [rsi+r14*8]
    19b0:	44 8b b5 24 dd ff ff 	mov    r14d,DWORD PTR [rbp-0x22dc]
    19b7:	4d 63 e4             	movsxd r12,r12d
    19ba:	c4 a1 7b 10 3c e6    	vmovsd xmm7,QWORD PTR [rsi+r12*8]
    19c0:	c5 3b 59 ca          	vmulsd xmm9,xmm8,xmm2
    19c4:	45 8d 24 06          	lea    r12d,[r14+rax*1]
    19c8:	c5 fb 11 95 50 e7 ff 	vmovsd QWORD PTR [rbp-0x18b0],xmm2
    19cf:	ff 
        dotp = 13.0*b[i + 64*ldb] + 3.0*b[i + 77*ldb] + 9.0*b[i + 111*ldb] + 3.0*b[i + 127*ldb];
    19d0:	44 8b b5 20 dd ff ff 	mov    r14d,DWORD PTR [rbp-0x22e0]
        dotp = 11.0*b[i + 22*ldb] + 8.0*b[i + 44*ldb] + 27.0*b[i + 51*ldb] + 16.0*b[i + 80*ldb] + 16.0*b[i + 98*ldb] + 16.0*b[i + 107*ldb] + 25.0*b[i + 114*ldb] + 21.0*b[i + 118*ldb];
    19d7:	c5 fb 11 bd 10 fb ff 	vmovsd QWORD PTR [rbp-0x4f0],xmm7
    19de:	ff 
    19df:	4d 63 e4             	movsxd r12,r12d
    19e2:	c4 a1 7b 10 14 e6    	vmovsd xmm2,QWORD PTR [rsi+r12*8]
        c[i + 3*ldc] = dotp;
    19e8:	4c 63 e2             	movsxd r12,edx
        c[i + 4*ldc] = dotp;
    19eb:	44 01 c2             	add    edx,r8d
        dotp = 11.0*b[i + 22*ldb] + 8.0*b[i + 44*ldb] + 27.0*b[i + 51*ldb] + 16.0*b[i + 80*ldb] + 16.0*b[i + 98*ldb] + 16.0*b[i + 107*ldb] + 25.0*b[i + 114*ldb] + 21.0*b[i + 118*ldb];
    19ee:	c5 7b 11 8d 58 dd ff 	vmovsd QWORD PTR [rbp-0x22a8],xmm9
    19f5:	ff 
    19f6:	c5 79 28 ca          	vmovapd xmm9,xmm2
    19fa:	c5 7b 11 8d 10 f9 ff 	vmovsd QWORD PTR [rbp-0x6f0],xmm9
    1a01:	ff 
    1a02:	62 91 87 08 59 d7    	vmulsd xmm2,xmm15,xmm31
    1a08:	c5 cb 58 f2          	vaddsd xmm6,xmm6,xmm2
    1a0c:	62 f1 bf 00 59 95 d0 	vmulsd xmm2,xmm24,QWORD PTR [rbp-0x730]
    1a13:	f8 ff ff 
    1a16:	c5 cb 58 d2          	vaddsd xmm2,xmm6,xmm2
    1a1a:	62 d1 d7 00 59 f0    	vmulsd xmm6,xmm21,xmm8
    1a20:	c5 eb 58 d6          	vaddsd xmm2,xmm2,xmm6
    1a24:	c5 bb 59 f7          	vmulsd xmm6,xmm8,xmm7
    1a28:	c5 eb 58 95 58 dd ff 	vaddsd xmm2,xmm2,QWORD PTR [rbp-0x22a8]
    1a2f:	ff 
    1a30:	c5 fb 10 bd 50 ff ff 	vmovsd xmm7,QWORD PTR [rbp-0xb0]
    1a37:	ff 
    1a38:	c5 eb 58 f6          	vaddsd xmm6,xmm2,xmm6
    1a3c:	c5 b3 59 d7          	vmulsd xmm2,xmm9,xmm7
    1a40:	c5 cb 58 d2          	vaddsd xmm2,xmm6,xmm2
    1a44:	c5 db 59 b5 90 f7 ff 	vmulsd xmm6,xmm4,QWORD PTR [rbp-0x870]
    1a4b:	ff 
    1a4c:	c5 eb 58 d6          	vaddsd xmm2,xmm2,xmm6
        c[i + 3*ldc] = dotp;
    1a50:	c4 a1 7b 11 14 e1    	vmovsd QWORD PTR [rcx+r12*8],xmm2
        dotp = 13.0*b[i + 64*ldb] + 3.0*b[i + 77*ldb] + 9.0*b[i + 111*ldb] + 3.0*b[i + 127*ldb];
    1a56:	45 8d 24 06          	lea    r12d,[r14+rax*1]
    1a5a:	44 8b b5 1c dd ff ff 	mov    r14d,DWORD PTR [rbp-0x22e4]
    1a61:	4d 63 e4             	movsxd r12,r12d
    1a64:	c4 21 7b 10 0c e6    	vmovsd xmm9,QWORD PTR [rsi+r12*8]
    1a6a:	45 8d 24 06          	lea    r12d,[r14+rax*1]
    1a6e:	44 8b b5 18 dd ff ff 	mov    r14d,DWORD PTR [rbp-0x22e8]
    1a75:	4d 63 e4             	movsxd r12,r12d
    1a78:	62 21 ff 08 10 3c e6 	vmovsd xmm31,QWORD PTR [rsi+r12*8]
    1a7f:	45 8d 24 06          	lea    r12d,[r14+rax*1]
    1a83:	44 8b b5 40 dc ff ff 	mov    r14d,DWORD PTR [rbp-0x23c0]
    1a8a:	c5 7b 11 8d 90 ee ff 	vmovsd QWORD PTR [rbp-0x1170],xmm9
    1a91:	ff 
    1a92:	4d 63 e4             	movsxd r12,r12d
    1a95:	c4 a1 7b 10 14 e6    	vmovsd xmm2,QWORD PTR [rsi+r12*8]
    1a9b:	45 8d 24 06          	lea    r12d,[r14+rax*1]
    1a9f:	62 61 ff 08 11 bd 90 	vmovsd QWORD PTR [rbp-0x1870],xmm31
    1aa6:	e7 ff ff 
    1aa9:	4d 63 e4             	movsxd r12,r12d
    1aac:	c5 fb 11 95 d0 ee ff 	vmovsd QWORD PTR [rbp-0x1130],xmm2
    1ab3:	ff 
    1ab4:	62 f1 df 00 59 f2    	vmulsd xmm6,xmm20,xmm2
    1aba:	c4 a1 7b 10 14 e6    	vmovsd xmm2,QWORD PTR [rsi+r12*8]
        c[i + 4*ldc] = dotp;
    1ac0:	4c 63 e2             	movsxd r12,edx
        c[i + 5*ldc] = dotp;
    1ac3:	44 01 c2             	add    edx,r8d
        dotp = 13.0*b[i + 64*ldb] + 3.0*b[i + 77*ldb] + 9.0*b[i + 111*ldb] + 3.0*b[i + 127*ldb];
    1ac6:	c5 fb 11 95 10 ef ff 	vmovsd QWORD PTR [rbp-0x10f0],xmm2
    1acd:	ff 
    1ace:	62 91 87 00 59 d2    	vmulsd xmm2,xmm31,xmm26
    1ad4:	c5 fb 11 b5 60 dd ff 	vmovsd QWORD PTR [rbp-0x22a0],xmm6
    1adb:	ff 
    1adc:	62 d1 8f 00 59 f1    	vmulsd xmm6,xmm30,xmm9
    1ae2:	c5 eb 58 d6          	vaddsd xmm2,xmm2,xmm6
    1ae6:	c5 eb 58 95 60 dd ff 	vaddsd xmm2,xmm2,QWORD PTR [rbp-0x22a0]
    1aed:	ff 
    1aee:	62 61 ff 08 10 bd 10 	vmovsd xmm31,QWORD PTR [rbp-0x10f0]
    1af5:	ef ff ff 
        dotp = 20.0*b[i + 2*ldb] + 23.0*b[i + 13*ldb] + 10.0*b[i + 21*ldb] + 1.0*b[i + 23*ldb] + 27.0*b[i + 36*ldb] + 22.0*b[i + 70*ldb] + 4.0*b[i + 117*ldb] + 23.0*b[i + 124*ldb];
    1af8:	62 e1 ff 08 11 75 82 	vmovsd QWORD PTR [rbp-0x3f0],xmm22
    1aff:	44 8b b5 34 dc ff ff 	mov    r14d,DWORD PTR [rbp-0x23cc]
        dotp = 13.0*b[i + 64*ldb] + 3.0*b[i + 77*ldb] + 9.0*b[i + 111*ldb] + 3.0*b[i + 127*ldb];
    1b06:	62 91 af 00 59 f7    	vmulsd xmm6,xmm26,xmm31
    1b0c:	c5 eb 58 d6          	vaddsd xmm2,xmm2,xmm6
        c[i + 4*ldc] = dotp;
    1b10:	c4 a1 7b 11 14 e1    	vmovsd QWORD PTR [rcx+r12*8],xmm2
        dotp = 20.0*b[i + 2*ldb] + 23.0*b[i + 13*ldb] + 10.0*b[i + 21*ldb] + 1.0*b[i + 23*ldb] + 27.0*b[i + 36*ldb] + 22.0*b[i + 70*ldb] + 4.0*b[i + 117*ldb] + 23.0*b[i + 124*ldb];
    1b16:	45 8d 24 06          	lea    r12d,[r14+rax*1]
    1b1a:	44 8b b5 30 dc ff ff 	mov    r14d,DWORD PTR [rbp-0x23d0]
    1b21:	4d 63 e4             	movsxd r12,r12d
    1b24:	c4 a1 7b 10 14 e6    	vmovsd xmm2,QWORD PTR [rsi+r12*8]
    1b2a:	45 8d 24 06          	lea    r12d,[r14+rax*1]
    1b2e:	44 8b b5 b4 db ff ff 	mov    r14d,DWORD PTR [rbp-0x244c]
    1b35:	4d 63 e4             	movsxd r12,r12d
    1b38:	c4 a1 7b 10 34 e6    	vmovsd xmm6,QWORD PTR [rsi+r12*8]
    1b3e:	45 8d 24 06          	lea    r12d,[r14+rax*1]
    1b42:	44 8b b5 14 dd ff ff 	mov    r14d,DWORD PTR [rbp-0x22ec]
    1b49:	c5 fb 11 95 10 fd ff 	vmovsd QWORD PTR [rbp-0x2f0],xmm2
    1b50:	ff 
    1b51:	4d 63 e4             	movsxd r12,r12d
    1b54:	c5 79 28 ce          	vmovapd xmm9,xmm6
    1b58:	c4 a1 7b 10 34 e6    	vmovsd xmm6,QWORD PTR [rsi+r12*8]
    1b5e:	45 8d 24 06          	lea    r12d,[r14+rax*1]
    1b62:	44 8b b5 10 dd ff ff 	mov    r14d,DWORD PTR [rbp-0x22f0]
    1b69:	c5 7b 11 8d 50 f2 ff 	vmovsd QWORD PTR [rbp-0xdb0],xmm9
    1b70:	ff 
    1b71:	4d 63 e4             	movsxd r12,r12d
    1b74:	c5 fb 11 b5 50 f9 ff 	vmovsd QWORD PTR [rbp-0x6b0],xmm6
    1b7b:	ff 
    1b7c:	62 f1 bf 00 59 b5 d0 	vmulsd xmm6,xmm24,QWORD PTR [rbp-0x1230]
    1b83:	ed ff ff 
    1b86:	c5 fb 11 b5 68 dd ff 	vmovsd QWORD PTR [rbp-0x2298],xmm6
    1b8d:	ff 
    1b8e:	c4 a1 7b 10 34 e6    	vmovsd xmm6,QWORD PTR [rsi+r12*8]
    1b94:	45 8d 24 06          	lea    r12d,[r14+rax*1]
        dotp = 18.0*b[i + 28*ldb] + 18.0*b[i + 47*ldb] + 12.0*b[i + 54*ldb] + 16.0*b[i + 59*ldb] + 7.0*b[i + 68*ldb] + 9.0*b[i + 87*ldb] + 20.0*b[i + 89*ldb] + 12.0*b[i + 91*ldb] + 18.0*b[i + 92*ldb] + 22.0*b[i + 110*ldb] + 1.0*b[i + 119*ldb];
    1b98:	44 8b b5 0c dd ff ff 	mov    r14d,DWORD PTR [rbp-0x22f4]
        dotp = 20.0*b[i + 2*ldb] + 23.0*b[i + 13*ldb] + 10.0*b[i + 21*ldb] + 1.0*b[i + 23*ldb] + 27.0*b[i + 36*ldb] + 22.0*b[i + 70*ldb] + 4.0*b[i + 117*ldb] + 23.0*b[i + 124*ldb];
    1b9f:	4d 63 e4             	movsxd r12,r12d
    1ba2:	c5 fb 11 b5 50 ef ff 	vmovsd QWORD PTR [rbp-0x10b0],xmm6
    1ba9:	ff 
    1baa:	c4 a1 7b 10 34 e6    	vmovsd xmm6,QWORD PTR [rsi+r12*8]
        c[i + 5*ldc] = dotp;
    1bb0:	4c 63 e2             	movsxd r12,edx
        c[i + 6*ldc] = dotp;
    1bb3:	44 01 c2             	add    edx,r8d
        dotp = 20.0*b[i + 2*ldb] + 23.0*b[i + 13*ldb] + 10.0*b[i + 21*ldb] + 1.0*b[i + 23*ldb] + 27.0*b[i + 36*ldb] + 22.0*b[i + 70*ldb] + 4.0*b[i + 117*ldb] + 23.0*b[i + 124*ldb];
    1bb6:	c5 fb 11 b5 70 dd ff 	vmovsd QWORD PTR [rbp-0x2290],xmm6
    1bbd:	ff 
    1bbe:	c5 fb 59 f2          	vmulsd xmm6,xmm0,xmm2
    1bc2:	62 f1 97 00 59 55 8a 	vmulsd xmm2,xmm29,QWORD PTR [rbp-0x3b0]
    1bc9:	c5 cb 58 d2          	vaddsd xmm2,xmm6,xmm2
    1bcd:	62 d1 c7 00 59 f1    	vmulsd xmm6,xmm23,xmm9
    1bd3:	c5 7b 10 8d 90 fe ff 	vmovsd xmm9,QWORD PTR [rbp-0x170]
    1bda:	ff 
    1bdb:	c5 eb 58 d6          	vaddsd xmm2,xmm2,xmm6
    1bdf:	c5 eb 58 95 50 f9 ff 	vaddsd xmm2,xmm2,QWORD PTR [rbp-0x6b0]
    1be6:	ff 
    1be7:	c5 fb 10 b5 50 ef ff 	vmovsd xmm6,QWORD PTR [rbp-0x10b0]
    1bee:	ff 
    1bef:	c5 eb 58 95 68 dd ff 	vaddsd xmm2,xmm2,QWORD PTR [rbp-0x2298]
    1bf6:	ff 
    1bf7:	c4 c1 4b 59 f1       	vmulsd xmm6,xmm6,xmm9
    1bfc:	c5 eb 58 f6          	vaddsd xmm6,xmm2,xmm6
    1c00:	62 b1 9f 00 59 d6    	vmulsd xmm2,xmm28,xmm22
    1c06:	c5 cb 58 d2          	vaddsd xmm2,xmm6,xmm2
    1c0a:	c5 fb 59 b5 70 dd ff 	vmulsd xmm6,xmm0,QWORD PTR [rbp-0x2290]
    1c11:	ff 
    1c12:	c5 eb 58 d6          	vaddsd xmm2,xmm2,xmm6
        c[i + 5*ldc] = dotp;
    1c16:	c4 a1 7b 11 14 e1    	vmovsd QWORD PTR [rcx+r12*8],xmm2
        dotp = 18.0*b[i + 28*ldb] + 18.0*b[i + 47*ldb] + 12.0*b[i + 54*ldb] + 16.0*b[i + 59*ldb] + 7.0*b[i + 68*ldb] + 9.0*b[i + 87*ldb] + 20.0*b[i + 89*ldb] + 12.0*b[i + 91*ldb] + 18.0*b[i + 92*ldb] + 22.0*b[i + 110*ldb] + 1.0*b[i + 119*ldb];
    1c1c:	45 8d 24 06          	lea    r12d,[r14+rax*1]
    1c20:	44 8b b5 b0 db ff ff 	mov    r14d,DWORD PTR [rbp-0x2450]
    1c27:	4d 63 e4             	movsxd r12,r12d
    1c2a:	62 a1 ff 08 10 34 e6 	vmovsd xmm22,QWORD PTR [rsi+r12*8]
    1c31:	45 8d 24 06          	lea    r12d,[r14+rax*1]
    1c35:	4d 63 e4             	movsxd r12,r12d
    1c38:	62 e1 ff 08 11 b5 d0 	vmovsd QWORD PTR [rbp-0x1830],xmm22
    1c3f:	e7 ff ff 
    1c42:	62 a1 ef 00 59 f6    	vmulsd xmm22,xmm18,xmm22
    1c48:	62 e1 ff 08 11 b5 78 	vmovsd QWORD PTR [rbp-0x2288],xmm22
    1c4f:	dd ff ff 
    1c52:	c4 a1 7b 10 14 e6    	vmovsd xmm2,QWORD PTR [rsi+r12*8]
    1c58:	44 8b b5 08 dd ff ff 	mov    r14d,DWORD PTR [rbp-0x22f8]
    1c5f:	62 e1 ef 00 59 f2    	vmulsd xmm22,xmm18,xmm2
    1c65:	45 8d 24 06          	lea    r12d,[r14+rax*1]
    1c69:	44 8b b5 ac db ff ff 	mov    r14d,DWORD PTR [rbp-0x2454]
    1c70:	c5 fb 11 95 50 fb ff 	vmovsd QWORD PTR [rbp-0x4b0],xmm2
    1c77:	ff 
    1c78:	4d 63 e4             	movsxd r12,r12d
    1c7b:	c4 a1 7b 10 34 e6    	vmovsd xmm6,QWORD PTR [rsi+r12*8]
    1c81:	45 8d 24 06          	lea    r12d,[r14+rax*1]
    1c85:	4d 63 f4             	movsxd r14,r12d
    1c88:	45 01 ec             	add    r12d,r13d
    1c8b:	c5 fb 11 b5 90 f9 ff 	vmovsd QWORD PTR [rbp-0x670],xmm6
    1c92:	ff 
    1c93:	4d 63 e4             	movsxd r12,r12d
    1c96:	62 e1 ff 08 11 b5 90 	vmovsd QWORD PTR [rbp-0x1c70],xmm22
    1c9d:	e3 ff ff 
    1ca0:	62 a1 ff 08 10 34 f6 	vmovsd xmm22,QWORD PTR [rsi+r14*8]
    1ca7:	44 8b b5 a8 db ff ff 	mov    r14d,DWORD PTR [rbp-0x2458]
    1cae:	62 e1 ff 08 11 75 ba 	vmovsd QWORD PTR [rbp-0x230],xmm22
    1cb5:	62 a1 ff 08 10 34 e6 	vmovsd xmm22,QWORD PTR [rsi+r12*8]
    1cbc:	45 8d 24 06          	lea    r12d,[r14+rax*1]
    1cc0:	44 8b b5 a4 db ff ff 	mov    r14d,DWORD PTR [rbp-0x245c]
    1cc7:	4d 63 e4             	movsxd r12,r12d
    1cca:	c4 a1 7b 10 14 e6    	vmovsd xmm2,QWORD PTR [rsi+r12*8]
    1cd0:	45 8d 24 06          	lea    r12d,[r14+rax*1]
    1cd4:	44 8b b5 a0 db ff ff 	mov    r14d,DWORD PTR [rbp-0x2460]
    1cdb:	62 e1 ff 08 11 b5 90 	vmovsd QWORD PTR [rbp-0x1070],xmm22
    1ce2:	ef ff ff 
    1ce5:	4d 63 e4             	movsxd r12,r12d
    1ce8:	62 e1 fd 48 28 f2    	vmovapd zmm22,zmm2
    1cee:	c4 a1 7b 10 14 e6    	vmovsd xmm2,QWORD PTR [rsi+r12*8]
    1cf4:	45 8d 24 06          	lea    r12d,[r14+rax*1]
    1cf8:	44 8b b5 04 dd ff ff 	mov    r14d,DWORD PTR [rbp-0x22fc]
    1cff:	62 e1 ff 08 11 75 c2 	vmovsd QWORD PTR [rbp-0x1f0],xmm22
    1d06:	4d 63 e4             	movsxd r12,r12d
    1d09:	c5 fb 11 95 d0 f9 ff 	vmovsd QWORD PTR [rbp-0x630],xmm2
    1d10:	ff 
    1d11:	c4 a1 7b 10 14 e6    	vmovsd xmm2,QWORD PTR [rsi+r12*8]
    1d17:	45 8d 24 06          	lea    r12d,[r14+rax*1]
    1d1b:	44 8b b5 00 dd ff ff 	mov    r14d,DWORD PTR [rbp-0x2300]
    1d22:	4d 63 e4             	movsxd r12,r12d
    1d25:	c5 fb 11 95 90 f2 ff 	vmovsd QWORD PTR [rbp-0xd70],xmm2
    1d2c:	ff 
    1d2d:	c4 a1 7b 10 14 e6    	vmovsd xmm2,QWORD PTR [rsi+r12*8]
    1d33:	45 8d 24 06          	lea    r12d,[r14+rax*1]
    1d37:	4d 63 f4             	movsxd r14,r12d
    1d3a:	45 01 ec             	add    r12d,r13d
    1d3d:	c5 fb 11 95 10 e8 ff 	vmovsd QWORD PTR [rbp-0x17f0],xmm2
    1d44:	ff 
    1d45:	4d 63 e4             	movsxd r12,r12d
    1d48:	c4 a1 7b 10 14 f6    	vmovsd xmm2,QWORD PTR [rsi+r14*8]
    1d4e:	c5 fb 11 95 d0 e3 ff 	vmovsd QWORD PTR [rbp-0x1c30],xmm2
    1d55:	ff 
    1d56:	c4 a1 7b 10 14 e6    	vmovsd xmm2,QWORD PTR [rsi+r12*8]
        c[i + 6*ldc] = dotp;
    1d5c:	4c 63 e2             	movsxd r12,edx
        c[i + 7*ldc] = dotp;
    1d5f:	44 01 c2             	add    edx,r8d
        dotp = 18.0*b[i + 28*ldb] + 18.0*b[i + 47*ldb] + 12.0*b[i + 54*ldb] + 16.0*b[i + 59*ldb] + 7.0*b[i + 68*ldb] + 9.0*b[i + 87*ldb] + 20.0*b[i + 89*ldb] + 12.0*b[i + 91*ldb] + 18.0*b[i + 92*ldb] + 22.0*b[i + 110*ldb] + 1.0*b[i + 119*ldb];
    1d62:	c5 fb 11 95 50 fd ff 	vmovsd QWORD PTR [rbp-0x2b0],xmm2
    1d69:	ff 
    1d6a:	c5 a3 59 d6          	vmulsd xmm2,xmm11,xmm6
    1d6e:	c5 fb 10 b5 90 e3 ff 	vmovsd xmm6,QWORD PTR [rbp-0x1c70]
    1d75:	ff 
    1d76:	c5 cb 58 b5 78 dd ff 	vaddsd xmm6,xmm6,QWORD PTR [rbp-0x2288]
    1d7d:	ff 
    1d7e:	c5 eb 58 f6          	vaddsd xmm6,xmm2,xmm6
    1d82:	c5 bb 59 95 d0 fd ff 	vmulsd xmm2,xmm8,QWORD PTR [rbp-0x230]
    1d89:	ff 
    1d8a:	c5 cb 58 f2          	vaddsd xmm6,xmm6,xmm2
    1d8e:	62 f1 a7 00 59 95 90 	vmulsd xmm2,xmm27,QWORD PTR [rbp-0x1070]
    1d95:	ef ff ff 
    1d98:	c5 cb 58 d2          	vaddsd xmm2,xmm6,xmm2
    1d9c:	62 b1 df 00 59 f6    	vmulsd xmm6,xmm20,xmm22
    1da2:	c5 eb 58 d6          	vaddsd xmm2,xmm2,xmm6
    1da6:	62 f1 97 00 59 b5 d0 	vmulsd xmm6,xmm29,QWORD PTR [rbp-0x630]
    1dad:	f9 ff ff 
    1db0:	62 e1 ff 08 10 b5 d0 	vmovsd xmm22,QWORD PTR [rbp-0x1c30]
    1db7:	e3 ff ff 
        dotp = 28.0*b[i + 16*ldb] + 23.0*b[i + 35*ldb] + 1.0*b[i + 52*ldb] + 1.0*b[i + 69*ldb] + 15.0*b[i + 90*ldb] + 26.0*b[i + 100*ldb];
    1dba:	44 8b b5 54 dc ff ff 	mov    r14d,DWORD PTR [rbp-0x23ac]
        dotp = 18.0*b[i + 28*ldb] + 18.0*b[i + 47*ldb] + 12.0*b[i + 54*ldb] + 16.0*b[i + 59*ldb] + 7.0*b[i + 68*ldb] + 9.0*b[i + 87*ldb] + 20.0*b[i + 89*ldb] + 12.0*b[i + 91*ldb] + 18.0*b[i + 92*ldb] + 22.0*b[i + 110*ldb] + 1.0*b[i + 119*ldb];
    1dc1:	c5 eb 58 f6          	vaddsd xmm6,xmm2,xmm6
    1dc5:	c5 a3 59 95 90 f2 ff 	vmulsd xmm2,xmm11,QWORD PTR [rbp-0xd70]
    1dcc:	ff 
    1dcd:	c5 cb 58 f2          	vaddsd xmm6,xmm6,xmm2
    1dd1:	62 f1 ef 00 59 95 10 	vmulsd xmm2,xmm18,QWORD PTR [rbp-0x17f0]
    1dd8:	e8 ff ff 
    1ddb:	c5 cb 58 d2          	vaddsd xmm2,xmm6,xmm2
    1ddf:	62 d1 cf 00 59 f1    	vmulsd xmm6,xmm22,xmm9
    1de5:	c5 eb 58 d6          	vaddsd xmm2,xmm2,xmm6
    1de9:	c5 eb 58 95 50 fd ff 	vaddsd xmm2,xmm2,QWORD PTR [rbp-0x2b0]
    1df0:	ff 
        c[i + 6*ldc] = dotp;
    1df1:	c4 a1 7b 11 14 e1    	vmovsd QWORD PTR [rcx+r12*8],xmm2
        dotp = 28.0*b[i + 16*ldb] + 23.0*b[i + 35*ldb] + 1.0*b[i + 52*ldb] + 1.0*b[i + 69*ldb] + 15.0*b[i + 90*ldb] + 26.0*b[i + 100*ldb];
    1df7:	45 8d 24 06          	lea    r12d,[r14+rax*1]
    1dfb:	44 8b b5 9c db ff ff 	mov    r14d,DWORD PTR [rbp-0x2464]
    1e02:	4d 63 e4             	movsxd r12,r12d
    1e05:	62 a1 ff 08 10 34 e6 	vmovsd xmm22,QWORD PTR [rsi+r12*8]
    1e0c:	45 8d 24 06          	lea    r12d,[r14+rax*1]
    1e10:	44 8b b5 fc dc ff ff 	mov    r14d,DWORD PTR [rbp-0x2304]
    1e17:	4d 63 e4             	movsxd r12,r12d
    1e1a:	62 e1 ff 08 11 b5 50 	vmovsd QWORD PTR [rbp-0x17b0],xmm22
    1e21:	e8 ff ff 
    1e24:	62 a1 af 08 59 f6    	vmulsd xmm22,xmm10,xmm22
    1e2a:	62 e1 ff 08 11 b5 50 	vmovsd QWORD PTR [rbp-0x8b0],xmm22
    1e31:	f7 ff ff 
    1e34:	62 a1 ff 08 10 34 e6 	vmovsd xmm22,QWORD PTR [rsi+r12*8]
    1e3b:	45 8d 24 06          	lea    r12d,[r14+rax*1]
    1e3f:	44 8b b5 98 db ff ff 	mov    r14d,DWORD PTR [rbp-0x2468]
    1e46:	4d 63 e4             	movsxd r12,r12d
    1e49:	62 b1 fd 48 28 f6    	vmovapd zmm6,zmm22
    1e4f:	62 a1 ff 08 10 34 e6 	vmovsd xmm22,QWORD PTR [rsi+r12*8]
    1e56:	45 8d 24 06          	lea    r12d,[r14+rax*1]
    1e5a:	44 8b b5 f8 dc ff ff 	mov    r14d,DWORD PTR [rbp-0x2308]
    1e61:	c5 fb 11 b5 90 e8 ff 	vmovsd QWORD PTR [rbp-0x1770],xmm6
    1e68:	ff 
    1e69:	4d 63 e4             	movsxd r12,r12d
    1e6c:	c4 a1 7b 10 14 e6    	vmovsd xmm2,QWORD PTR [rsi+r12*8]
    1e72:	45 8d 24 06          	lea    r12d,[r14+rax*1]
        dotp = 8.0*b[i + 5*ldb] + 14.0*b[i + 17*ldb] + 31.0*b[i + 47*ldb] + 19.0*b[i + 106*ldb] + 14.0*b[i + 127*ldb];
    1e76:	44 8b b5 4c dc ff ff 	mov    r14d,DWORD PTR [rbp-0x23b4]
        dotp = 28.0*b[i + 16*ldb] + 23.0*b[i + 35*ldb] + 1.0*b[i + 52*ldb] + 1.0*b[i + 69*ldb] + 15.0*b[i + 90*ldb] + 26.0*b[i + 100*ldb];
    1e7d:	62 e1 ff 08 11 b5 10 	vmovsd QWORD PTR [rbp-0x5f0],xmm22
    1e84:	fa ff ff 
    1e87:	4d 63 e4             	movsxd r12,r12d
    1e8a:	c5 fb 11 95 d0 f2 ff 	vmovsd QWORD PTR [rbp-0xd30],xmm2
    1e91:	ff 
    1e92:	c4 a1 7b 10 14 e6    	vmovsd xmm2,QWORD PTR [rsi+r12*8]
        c[i + 7*ldc] = dotp;
    1e98:	4c 63 e2             	movsxd r12,edx
        c[i + 8*ldc] = dotp;
    1e9b:	44 01 c2             	add    edx,r8d
        dotp = 28.0*b[i + 16*ldb] + 23.0*b[i + 35*ldb] + 1.0*b[i + 52*ldb] + 1.0*b[i + 69*ldb] + 15.0*b[i + 90*ldb] + 26.0*b[i + 100*ldb];
    1e9e:	c5 fb 11 95 d0 ef ff 	vmovsd QWORD PTR [rbp-0x1030],xmm2
    1ea5:	ff 
    1ea6:	c5 fb 59 d6          	vmulsd xmm2,xmm0,xmm6
    1eaa:	c5 eb 58 95 50 f7 ff 	vaddsd xmm2,xmm2,QWORD PTR [rbp-0x8b0]
    1eb1:	ff 
    1eb2:	c5 eb 58 95 10 f8 ff 	vaddsd xmm2,xmm2,QWORD PTR [rbp-0x7f0]
    1eb9:	ff 
    1eba:	62 f1 ff 00 59 b5 d0 	vmulsd xmm6,xmm16,QWORD PTR [rbp-0xd30]
    1ec1:	f2 ff ff 
    1ec4:	62 b1 ef 08 58 d6    	vaddsd xmm2,xmm2,xmm22
    1eca:	c5 eb 58 d6          	vaddsd xmm2,xmm2,xmm6
    1ece:	c5 e3 59 b5 d0 ef ff 	vmulsd xmm6,xmm3,QWORD PTR [rbp-0x1030]
    1ed5:	ff 
    1ed6:	c5 eb 58 d6          	vaddsd xmm2,xmm2,xmm6
        c[i + 7*ldc] = dotp;
    1eda:	c4 a1 7b 11 14 e1    	vmovsd QWORD PTR [rcx+r12*8],xmm2
        dotp = 8.0*b[i + 5*ldb] + 14.0*b[i + 17*ldb] + 31.0*b[i + 47*ldb] + 19.0*b[i + 106*ldb] + 14.0*b[i + 127*ldb];
    1ee0:	45 8d 24 06          	lea    r12d,[r14+rax*1]
    1ee4:	44 8b b5 f4 dc ff ff 	mov    r14d,DWORD PTR [rbp-0x230c]
    1eeb:	4d 63 e4             	movsxd r12,r12d
    1eee:	62 a1 ff 08 10 34 e6 	vmovsd xmm22,QWORD PTR [rsi+r12*8]
    1ef5:	45 8d 24 06          	lea    r12d,[r14+rax*1]
    1ef9:	4d 63 e4             	movsxd r12,r12d
    1efc:	62 b1 fd 48 28 f6    	vmovapd zmm6,zmm22
    1f02:	62 a1 ff 08 10 34 e6 	vmovsd xmm22,QWORD PTR [rsi+r12*8]
        c[i + 8*ldc] = dotp;
    1f09:	4c 63 e2             	movsxd r12,edx
        c[i + 9*ldc] = dotp;
    1f0c:	44 01 c2             	add    edx,r8d
        dotp = 8.0*b[i + 5*ldb] + 14.0*b[i + 17*ldb] + 31.0*b[i + 47*ldb] + 19.0*b[i + 106*ldb] + 14.0*b[i + 127*ldb];
    1f0f:	62 e1 ff 08 11 b5 10 	vmovsd QWORD PTR [rbp-0xcf0],xmm22
    1f16:	f3 ff ff 
    1f19:	62 f1 f7 00 59 55 92 	vmulsd xmm2,xmm17,QWORD PTR [rbp-0x370]
        dotp = 15.0*b[i + 25*ldb] + 8.0*b[i + 64*ldb] + 8.0*b[i + 66*ldb];
    1f20:	44 8b b5 2c dc ff ff 	mov    r14d,DWORD PTR [rbp-0x23d4]
        dotp = 8.0*b[i + 5*ldb] + 14.0*b[i + 17*ldb] + 31.0*b[i + 47*ldb] + 19.0*b[i + 106*ldb] + 14.0*b[i + 127*ldb];
    1f27:	c5 fb 11 b5 d0 e8 ff 	vmovsd QWORD PTR [rbp-0x1730],xmm6
    1f2e:	ff 
    1f2f:	c5 d3 59 f6          	vmulsd xmm6,xmm5,xmm6
    1f33:	c5 eb 58 f6          	vaddsd xmm6,xmm2,xmm6
    1f37:	c5 fb 10 95 50 fb ff 	vmovsd xmm2,QWORD PTR [rbp-0x4b0]
    1f3e:	ff 
    1f3f:	c5 eb 59 55 90       	vmulsd xmm2,xmm2,QWORD PTR [rbp-0x70]
    1f44:	c5 cb 58 f2          	vaddsd xmm6,xmm6,xmm2
    1f48:	c5 93 59 95 10 f3 ff 	vmulsd xmm2,xmm13,QWORD PTR [rbp-0xcf0]
    1f4f:	ff 
    1f50:	c5 cb 58 d2          	vaddsd xmm2,xmm6,xmm2
    1f54:	62 91 f7 00 59 f7    	vmulsd xmm6,xmm17,xmm31
    1f5a:	c5 eb 58 d6          	vaddsd xmm2,xmm2,xmm6
        dotp = 15.0*b[i + 25*ldb] + 8.0*b[i + 64*ldb] + 8.0*b[i + 66*ldb];
    1f5e:	c5 d3 59 b5 90 ee ff 	vmulsd xmm6,xmm5,QWORD PTR [rbp-0x1170]
    1f65:	ff 
        c[i + 8*ldc] = dotp;
    1f66:	c4 a1 7b 11 14 e1    	vmovsd QWORD PTR [rcx+r12*8],xmm2
        dotp = 15.0*b[i + 25*ldb] + 8.0*b[i + 64*ldb] + 8.0*b[i + 66*ldb];
    1f6c:	45 8d 24 06          	lea    r12d,[r14+rax*1]
    1f70:	44 8b b5 f0 dc ff ff 	mov    r14d,DWORD PTR [rbp-0x2310]
    1f77:	4d 63 e4             	movsxd r12,r12d
    1f7a:	62 21 ff 08 10 3c e6 	vmovsd xmm31,QWORD PTR [rsi+r12*8]
    1f81:	45 8d 24 06          	lea    r12d,[r14+rax*1]
        dotp = 7.0*b[i + 12*ldb] + 9.0*b[i + 51*ldb] + 29.0*b[i + 56*ldb] + 5.0*b[i + 66*ldb] + 14.0*b[i + 67*ldb] + 11.0*b[i + 112*ldb] + 10.0*b[i + 117*ldb];
    1f85:	44 8b b5 38 dc ff ff 	mov    r14d,DWORD PTR [rbp-0x23c8]
        dotp = 15.0*b[i + 25*ldb] + 8.0*b[i + 64*ldb] + 8.0*b[i + 66*ldb];
    1f8c:	4d 63 e4             	movsxd r12,r12d
    1f8f:	c4 a1 7b 10 14 e6    	vmovsd xmm2,QWORD PTR [rsi+r12*8]
        c[i + 9*ldc] = dotp;
    1f95:	4c 63 e2             	movsxd r12,edx
        c[i + 10*ldc] = dotp;
    1f98:	44 01 c2             	add    edx,r8d
        dotp = 15.0*b[i + 25*ldb] + 8.0*b[i + 64*ldb] + 8.0*b[i + 66*ldb];
    1f9b:	62 61 ff 08 11 bd 10 	vmovsd QWORD PTR [rbp-0x16f0],xmm31
    1fa2:	e9 ff ff 
    1fa5:	62 e1 fd 48 28 f2    	vmovapd zmm22,zmm2
    1fab:	62 91 ff 00 59 d7    	vmulsd xmm2,xmm16,xmm31
    1fb1:	62 21 fd 48 28 fe    	vmovapd zmm31,zmm22
        dotp = 7.0*b[i + 12*ldb] + 9.0*b[i + 51*ldb] + 29.0*b[i + 56*ldb] + 5.0*b[i + 66*ldb] + 14.0*b[i + 67*ldb] + 11.0*b[i + 112*ldb] + 10.0*b[i + 117*ldb];
    1fb7:	62 61 ff 08 11 bd 10 	vmovsd QWORD PTR [rbp-0x1bf0],xmm31
    1fbe:	e4 ff ff 
    1fc1:	62 01 e7 00 59 ff    	vmulsd xmm31,xmm19,xmm31
        dotp = 15.0*b[i + 25*ldb] + 8.0*b[i + 64*ldb] + 8.0*b[i + 66*ldb];
    1fc7:	c5 cb 58 d2          	vaddsd xmm2,xmm6,xmm2
    1fcb:	62 b1 d7 08 59 f6    	vmulsd xmm6,xmm5,xmm22
        dotp = 7.0*b[i + 12*ldb] + 9.0*b[i + 51*ldb] + 29.0*b[i + 56*ldb] + 5.0*b[i + 66*ldb] + 14.0*b[i + 67*ldb] + 11.0*b[i + 112*ldb] + 10.0*b[i + 117*ldb];
    1fd1:	62 61 ff 08 11 bd 80 	vmovsd QWORD PTR [rbp-0x2280],xmm31
    1fd8:	dd ff ff 
        dotp = 15.0*b[i + 25*ldb] + 8.0*b[i + 64*ldb] + 8.0*b[i + 66*ldb];
    1fdb:	c5 eb 58 d6          	vaddsd xmm2,xmm2,xmm6
        c[i + 9*ldc] = dotp;
    1fdf:	c4 a1 7b 11 14 e1    	vmovsd QWORD PTR [rcx+r12*8],xmm2
        dotp = 7.0*b[i + 12*ldb] + 9.0*b[i + 51*ldb] + 29.0*b[i + 56*ldb] + 5.0*b[i + 66*ldb] + 14.0*b[i + 67*ldb] + 11.0*b[i + 112*ldb] + 10.0*b[i + 117*ldb];
    1fe5:	45 8d 24 06          	lea    r12d,[r14+rax*1]
    1fe9:	44 8b b5 ec dc ff ff 	mov    r14d,DWORD PTR [rbp-0x2314]
    1ff0:	4d 63 e4             	movsxd r12,r12d
    1ff3:	c4 a1 7b 10 14 e6    	vmovsd xmm2,QWORD PTR [rsi+r12*8]
    1ff9:	45 8d 24 06          	lea    r12d,[r14+rax*1]
        dotp = 15.0*b[i + 9*ldb] + 22.0*b[i + 26*ldb] + 5.0*b[i + 67*ldb] + 27.0*b[i + 70*ldb] + 28.0*b[i + 79*ldb] + 22.0*b[i + 82*ldb] + 12.0*b[i + 83*ldb] + 23.0*b[i + 89*ldb];
    1ffd:	44 8b b5 e8 dc ff ff 	mov    r14d,DWORD PTR [rbp-0x2318]
        dotp = 7.0*b[i + 12*ldb] + 9.0*b[i + 51*ldb] + 29.0*b[i + 56*ldb] + 5.0*b[i + 66*ldb] + 14.0*b[i + 67*ldb] + 11.0*b[i + 112*ldb] + 10.0*b[i + 117*ldb];
    2004:	4d 63 e4             	movsxd r12,r12d
    2007:	62 e1 fd 48 28 f2    	vmovapd zmm22,zmm2
    200d:	c4 a1 7b 10 14 e6    	vmovsd xmm2,QWORD PTR [rsi+r12*8]
        c[i + 10*ldc] = dotp;
    2013:	4c 63 e2             	movsxd r12,edx
        c[i + 11*ldc] = dotp;
    2016:	44 01 c2             	add    edx,r8d
        dotp = 7.0*b[i + 12*ldb] + 9.0*b[i + 51*ldb] + 29.0*b[i + 56*ldb] + 5.0*b[i + 66*ldb] + 14.0*b[i + 67*ldb] + 11.0*b[i + 112*ldb] + 10.0*b[i + 117*ldb];
    2019:	62 e1 ff 08 11 b5 10 	vmovsd QWORD PTR [rbp-0xff0],xmm22
    2020:	f0 ff ff 
    2023:	c5 fb 11 95 50 e4 ff 	vmovsd QWORD PTR [rbp-0x1bb0],xmm2
    202a:	ff 
    202b:	c5 8b 59 f2          	vmulsd xmm6,xmm14,xmm2
    202f:	62 f1 df 00 59 95 d0 	vmulsd xmm2,xmm20,QWORD PTR [rbp-0x730]
    2036:	f8 ff ff 
    2039:	c5 fb 11 b5 90 e4 ff 	vmovsd QWORD PTR [rbp-0x1b70],xmm6
    2040:	ff 
    2041:	62 b1 a7 00 59 f6    	vmulsd xmm6,xmm27,xmm22
    2047:	62 e1 ff 08 10 75 82 	vmovsd xmm22,QWORD PTR [rbp-0x3f0]
    204e:	c5 eb 58 d6          	vaddsd xmm2,xmm2,xmm6
    2052:	62 f1 f7 00 59 b5 50 	vmulsd xmm6,xmm17,QWORD PTR [rbp-0x12b0]
    2059:	ed ff ff 
    205c:	c5 eb 58 95 90 e4 ff 	vaddsd xmm2,xmm2,QWORD PTR [rbp-0x1b70]
    2063:	ff 
    2064:	c5 eb 58 95 80 dd ff 	vaddsd xmm2,xmm2,QWORD PTR [rbp-0x2280]
    206b:	ff 
    206c:	c5 eb 58 f6          	vaddsd xmm6,xmm2,xmm6
    2070:	c5 83 59 95 90 ed ff 	vmulsd xmm2,xmm15,QWORD PTR [rbp-0x1270]
    2077:	ff 
    2078:	c5 cb 58 d2          	vaddsd xmm2,xmm6,xmm2
    207c:	62 b1 c7 00 59 f6    	vmulsd xmm6,xmm23,xmm22
    2082:	c5 eb 58 d6          	vaddsd xmm2,xmm2,xmm6
        c[i + 10*ldc] = dotp;
    2086:	c4 a1 7b 11 14 e1    	vmovsd QWORD PTR [rcx+r12*8],xmm2
        dotp = 15.0*b[i + 9*ldb] + 22.0*b[i + 26*ldb] + 5.0*b[i + 67*ldb] + 27.0*b[i + 70*ldb] + 28.0*b[i + 79*ldb] + 22.0*b[i + 82*ldb] + 12.0*b[i + 83*ldb] + 23.0*b[i + 89*ldb];
    208c:	45 8d 24 06          	lea    r12d,[r14+rax*1]
    2090:	4d 63 e4             	movsxd r12,r12d
    2093:	c4 a1 7b 10 34 e6    	vmovsd xmm6,QWORD PTR [rsi+r12*8]
    2099:	c5 fb 11 b5 50 fe ff 	vmovsd QWORD PTR [rbp-0x1b0],xmm6
    20a0:	ff 
    20a1:	44 8b b5 e4 dc ff ff 	mov    r14d,DWORD PTR [rbp-0x231c]
    20a8:	c5 b3 59 95 50 ee ff 	vmulsd xmm2,xmm9,QWORD PTR [rbp-0x11b0]
    20af:	ff 
    20b0:	45 8d 24 06          	lea    r12d,[r14+rax*1]
        dotp = 24.0*b[i + 4*ldb] + 6.0*b[i + 51*ldb] + 16.0*b[i + 78*ldb] + 18.0*b[i + 89*ldb] + 6.0*b[i + 117*ldb];
    20b4:	44 8b b5 50 dc ff ff 	mov    r14d,DWORD PTR [rbp-0x23b0]
        dotp = 15.0*b[i + 9*ldb] + 22.0*b[i + 26*ldb] + 5.0*b[i + 67*ldb] + 27.0*b[i + 70*ldb] + 28.0*b[i + 79*ldb] + 22.0*b[i + 82*ldb] + 12.0*b[i + 83*ldb] + 23.0*b[i + 89*ldb];
    20bb:	4d 63 e4             	movsxd r12,r12d
    20be:	c4 a1 7b 10 34 e6    	vmovsd xmm6,QWORD PTR [rsi+r12*8]
        c[i + 11*ldc] = dotp;
    20c4:	4c 63 e2             	movsxd r12,edx
        c[i + 12*ldc] = dotp;
    20c7:	44 01 c2             	add    edx,r8d
        dotp = 15.0*b[i + 9*ldb] + 22.0*b[i + 26*ldb] + 5.0*b[i + 67*ldb] + 27.0*b[i + 70*ldb] + 28.0*b[i + 79*ldb] + 22.0*b[i + 82*ldb] + 12.0*b[i + 83*ldb] + 23.0*b[i + 89*ldb];
    20ca:	c5 fb 11 b5 50 f3 ff 	vmovsd QWORD PTR [rbp-0xcb0],xmm6
    20d1:	ff 
    20d2:	62 61 a7 08 59 fe    	vmulsd xmm31,xmm11,xmm6
    20d8:	62 61 ff 08 11 bd 88 	vmovsd QWORD PTR [rbp-0x2278],xmm31
    20df:	dd ff ff 
    20e2:	62 61 ff 08 10 bd 90 	vmovsd xmm31,QWORD PTR [rbp-0x1970]
    20e9:	e6 ff ff 
    20ec:	62 91 ff 00 59 f7    	vmulsd xmm6,xmm16,xmm31
    20f2:	c5 eb 58 d6          	vaddsd xmm2,xmm2,xmm6
    20f6:	62 f1 e7 00 59 b5 50 	vmulsd xmm6,xmm19,QWORD PTR [rbp-0x12b0]
    20fd:	ed ff ff 
    2100:	c5 eb 58 f6          	vaddsd xmm6,xmm2,xmm6
    2104:	62 f1 bf 00 59 95 50 	vmulsd xmm2,xmm24,QWORD PTR [rbp-0x10b0]
    210b:	ef ff ff 
    210e:	c5 cb 58 f2          	vaddsd xmm6,xmm6,xmm2
    2112:	c5 ab 59 95 50 fe ff 	vmulsd xmm2,xmm10,QWORD PTR [rbp-0x1b0]
    2119:	ff 
    211a:	c5 cb 58 d2          	vaddsd xmm2,xmm6,xmm2
    211e:	c5 b3 59 b5 90 e2 ff 	vmulsd xmm6,xmm9,QWORD PTR [rbp-0x1d70]
    2125:	ff 
    2126:	c5 7b 10 8d d0 f9 ff 	vmovsd xmm9,QWORD PTR [rbp-0x630]
    212d:	ff 
    212e:	c5 eb 58 d6          	vaddsd xmm2,xmm2,xmm6
    2132:	c4 c1 7b 59 f1       	vmulsd xmm6,xmm0,xmm9
    2137:	c5 eb 58 95 88 dd ff 	vaddsd xmm2,xmm2,QWORD PTR [rbp-0x2278]
    213e:	ff 
    213f:	c5 eb 58 d6          	vaddsd xmm2,xmm2,xmm6
        c[i + 11*ldc] = dotp;
    2143:	c4 a1 7b 11 14 e1    	vmovsd QWORD PTR [rcx+r12*8],xmm2
        dotp = 24.0*b[i + 4*ldb] + 6.0*b[i + 51*ldb] + 16.0*b[i + 78*ldb] + 18.0*b[i + 89*ldb] + 6.0*b[i + 117*ldb];
    2149:	45 8d 24 06          	lea    r12d,[r14+rax*1]
    214d:	44 8b b5 e0 dc ff ff 	mov    r14d,DWORD PTR [rbp-0x2320]
    2154:	4d 63 e4             	movsxd r12,r12d
    2157:	c4 a1 7b 10 14 e6    	vmovsd xmm2,QWORD PTR [rsi+r12*8]
    215d:	45 8d 24 06          	lea    r12d,[r14+rax*1]
        dotp = 12.0*b[i + 29*ldb] + 10.0*b[i + 73*ldb] + 28.0*b[i + 78*ldb] + 1.0*b[i + 103*ldb] + 13.0*b[i + 104*ldb] + 28.0*b[i + 126*ldb];
    2161:	44 8b b5 dc dc ff ff 	mov    r14d,DWORD PTR [rbp-0x2324]
        dotp = 24.0*b[i + 4*ldb] + 6.0*b[i + 51*ldb] + 16.0*b[i + 78*ldb] + 18.0*b[i + 89*ldb] + 6.0*b[i + 117*ldb];
    2168:	4d 63 e4             	movsxd r12,r12d
    216b:	c5 f9 28 f2          	vmovapd xmm6,xmm2
    216f:	c4 a1 7b 10 14 e6    	vmovsd xmm2,QWORD PTR [rsi+r12*8]
        c[i + 12*ldc] = dotp;
    2175:	4c 63 e2             	movsxd r12,edx
        c[i + 13*ldc] = dotp;
    2178:	44 01 c2             	add    edx,r8d
        dotp = 24.0*b[i + 4*ldb] + 6.0*b[i + 51*ldb] + 16.0*b[i + 78*ldb] + 18.0*b[i + 89*ldb] + 6.0*b[i + 117*ldb];
    217b:	c5 fb 11 b5 90 f3 ff 	vmovsd QWORD PTR [rbp-0xc70],xmm6
    2182:	ff 
    2183:	62 f1 b7 00 59 f6    	vmulsd xmm6,xmm25,xmm6
    2189:	c5 fb 11 95 d0 f3 ff 	vmovsd QWORD PTR [rbp-0xc30],xmm2
    2190:	ff 
    2191:	c5 9b 59 95 d0 f8 ff 	vmulsd xmm2,xmm12,QWORD PTR [rbp-0x730]
    2198:	ff 
    2199:	c5 eb 58 f6          	vaddsd xmm6,xmm2,xmm6
    219d:	c5 bb 59 95 d0 f3 ff 	vmulsd xmm2,xmm8,QWORD PTR [rbp-0xc30]
    21a4:	ff 
    21a5:	c5 cb 58 f2          	vaddsd xmm6,xmm6,xmm2
    21a9:	62 d1 ef 00 59 d1    	vmulsd xmm2,xmm18,xmm9
    21af:	c5 cb 58 d2          	vaddsd xmm2,xmm6,xmm2
    21b3:	62 b1 9f 08 59 f6    	vmulsd xmm6,xmm12,xmm22
    21b9:	c5 eb 58 d6          	vaddsd xmm2,xmm2,xmm6
        c[i + 12*ldc] = dotp;
    21bd:	c4 a1 7b 11 14 e1    	vmovsd QWORD PTR [rcx+r12*8],xmm2
        dotp = 12.0*b[i + 29*ldb] + 10.0*b[i + 73*ldb] + 28.0*b[i + 78*ldb] + 1.0*b[i + 103*ldb] + 13.0*b[i + 104*ldb] + 28.0*b[i + 126*ldb];
    21c3:	45 8d 24 06          	lea    r12d,[r14+rax*1]
    21c7:	44 8b b5 28 dc ff ff 	mov    r14d,DWORD PTR [rbp-0x23d8]
    21ce:	4d 63 e4             	movsxd r12,r12d
    21d1:	62 a1 ff 08 10 34 e6 	vmovsd xmm22,QWORD PTR [rsi+r12*8]
    21d8:	45 8d 24 06          	lea    r12d,[r14+rax*1]
    21dc:	44 8b b5 d8 dc ff ff 	mov    r14d,DWORD PTR [rbp-0x2328]
    21e3:	4d 63 e4             	movsxd r12,r12d
    21e6:	c4 21 7b 10 0c e6    	vmovsd xmm9,QWORD PTR [rsi+r12*8]
    21ec:	45 8d 24 06          	lea    r12d,[r14+rax*1]
    21f0:	62 e1 ff 08 11 b5 10 	vmovsd QWORD PTR [rbp-0xbf0],xmm22
    21f7:	f4 ff ff 
    21fa:	4d 63 e4             	movsxd r12,r12d
    21fd:	c4 a1 7b 10 14 e6    	vmovsd xmm2,QWORD PTR [rsi+r12*8]
    2203:	62 d1 c7 00 59 f1    	vmulsd xmm6,xmm23,xmm9
        c[i + 13*ldc] = dotp;
    2209:	4c 63 e2             	movsxd r12,edx
        dotp = 12.0*b[i + 29*ldb] + 10.0*b[i + 73*ldb] + 28.0*b[i + 78*ldb] + 1.0*b[i + 103*ldb] + 13.0*b[i + 104*ldb] + 28.0*b[i + 126*ldb];
    220c:	c5 7b 11 8d 50 f0 ff 	vmovsd QWORD PTR [rbp-0xfb0],xmm9
    2213:	ff 
        c[i + 14*ldc] = dotp;
    2214:	44 01 c2             	add    edx,r8d
        dotp = 12.0*b[i + 29*ldb] + 10.0*b[i + 73*ldb] + 28.0*b[i + 78*ldb] + 1.0*b[i + 103*ldb] + 13.0*b[i + 104*ldb] + 28.0*b[i + 126*ldb];
    2217:	c5 fb 11 95 50 e9 ff 	vmovsd QWORD PTR [rbp-0x16b0],xmm2
    221e:	ff 
    221f:	62 b1 a7 08 59 d6    	vmulsd xmm2,xmm11,xmm22
    2225:	c5 cb 58 d2          	vaddsd xmm2,xmm6,xmm2
    2229:	c5 ab 59 b5 d0 f3 ff 	vmulsd xmm6,xmm10,QWORD PTR [rbp-0xc30]
    2230:	ff 
    2231:	c5 eb 58 d6          	vaddsd xmm2,xmm2,xmm6
    2235:	c5 eb 58 95 d0 fa ff 	vaddsd xmm2,xmm2,QWORD PTR [rbp-0x530]
    223c:	ff 
    223d:	62 f1 8f 00 59 b5 50 	vmulsd xmm6,xmm30,QWORD PTR [rbp-0x16b0]
    2244:	e9 ff ff 
        dotp = 16.0*b[i + 1*ldb] + 6.0*b[i + 17*ldb] + 2.0*b[i + 31*ldb] + 13.0*b[i + 36*ldb] + 1.0*b[i + 70*ldb] + 16.0*b[i + 74*ldb] + 9.0*b[i + 88*ldb] + 14.0*b[i + 104*ldb];
    2247:	44 8b b5 70 db ff ff 	mov    r14d,DWORD PTR [rbp-0x2490]
        dotp = 12.0*b[i + 29*ldb] + 10.0*b[i + 73*ldb] + 28.0*b[i + 78*ldb] + 1.0*b[i + 103*ldb] + 13.0*b[i + 104*ldb] + 28.0*b[i + 126*ldb];
    224e:	c5 eb 58 d6          	vaddsd xmm2,xmm2,xmm6
    2252:	c5 ab 59 b5 d0 f7 ff 	vmulsd xmm6,xmm10,QWORD PTR [rbp-0x830]
    2259:	ff 
    225a:	c5 eb 58 d6          	vaddsd xmm2,xmm2,xmm6
        c[i + 13*ldc] = dotp;
    225e:	c4 a1 7b 11 14 e1    	vmovsd QWORD PTR [rcx+r12*8],xmm2
        dotp = 16.0*b[i + 1*ldb] + 6.0*b[i + 17*ldb] + 2.0*b[i + 31*ldb] + 13.0*b[i + 36*ldb] + 1.0*b[i + 70*ldb] + 16.0*b[i + 74*ldb] + 9.0*b[i + 88*ldb] + 14.0*b[i + 104*ldb];
    2264:	45 8d 24 07          	lea    r12d,[r15+rax*1]
    2268:	4d 63 e4             	movsxd r12,r12d
    226b:	c4 21 7b 10 0c e6    	vmovsd xmm9,QWORD PTR [rsi+r12*8]
    2271:	45 8d 24 06          	lea    r12d,[r14+rax*1]
    2275:	44 8b b5 d4 dc ff ff 	mov    r14d,DWORD PTR [rbp-0x232c]
    227c:	4d 63 e4             	movsxd r12,r12d
    227f:	c5 7b 11 8d 90 fb ff 	vmovsd QWORD PTR [rbp-0x470],xmm9
    2286:	ff 
    2287:	c4 21 7b 10 0c e6    	vmovsd xmm9,QWORD PTR [rsi+r12*8]
    228d:	45 8d 24 06          	lea    r12d,[r14+rax*1]
    2291:	44 8b b5 d0 dc ff ff 	mov    r14d,DWORD PTR [rbp-0x2330]
    2298:	c5 bb 59 95 90 fb ff 	vmulsd xmm2,xmm8,QWORD PTR [rbp-0x470]
    229f:	ff 
    22a0:	4d 63 e4             	movsxd r12,r12d
    22a3:	c5 7b 11 8d 50 f4 ff 	vmovsd QWORD PTR [rbp-0xbb0],xmm9
    22aa:	ff 
    22ab:	c4 21 7b 10 0c e6    	vmovsd xmm9,QWORD PTR [rsi+r12*8]
    22b1:	45 8d 24 06          	lea    r12d,[r14+rax*1]
        dotp = 12.0*b[i + 18*ldb] + 25.0*b[i + 25*ldb] + 16.0*b[i + 55*ldb] + 5.0*b[i + 63*ldb] + 4.0*b[i + 94*ldb] + 18.0*b[i + 96*ldb];
    22b5:	44 8b b5 20 dc ff ff 	mov    r14d,DWORD PTR [rbp-0x23e0]
        dotp = 16.0*b[i + 1*ldb] + 6.0*b[i + 17*ldb] + 2.0*b[i + 31*ldb] + 13.0*b[i + 36*ldb] + 1.0*b[i + 70*ldb] + 16.0*b[i + 74*ldb] + 9.0*b[i + 88*ldb] + 14.0*b[i + 104*ldb];
    22bc:	4d 63 e4             	movsxd r12,r12d
    22bf:	c5 7b 11 8d d0 e1 ff 	vmovsd QWORD PTR [rbp-0x1e30],xmm9
    22c6:	ff 
    22c7:	c4 21 7b 10 0c e6    	vmovsd xmm9,QWORD PTR [rsi+r12*8]
        c[i + 14*ldc] = dotp;
    22cd:	4c 63 e2             	movsxd r12,edx
        c[i + 15*ldc] = dotp;
    22d0:	44 01 c2             	add    edx,r8d
        dotp = 16.0*b[i + 1*ldb] + 6.0*b[i + 17*ldb] + 2.0*b[i + 31*ldb] + 13.0*b[i + 36*ldb] + 1.0*b[i + 70*ldb] + 16.0*b[i + 74*ldb] + 9.0*b[i + 88*ldb] + 14.0*b[i + 104*ldb];
    22d3:	c5 7b 11 8d d0 fb ff 	vmovsd QWORD PTR [rbp-0x430],xmm9
    22da:	ff 
    22db:	62 c1 df 00 59 f1    	vmulsd xmm22,xmm20,xmm9
    22e1:	62 e1 ff 08 11 b5 10 	vmovsd QWORD PTR [rbp-0x1af0],xmm22
    22e8:	e5 ff ff 
    22eb:	62 e1 ff 08 10 75 92 	vmovsd xmm22,QWORD PTR [rbp-0x370]
    22f2:	62 b1 9f 08 59 f6    	vmulsd xmm6,xmm12,xmm22
    22f8:	c5 cb 58 f2          	vaddsd xmm6,xmm6,xmm2
    22fc:	c5 fb 10 95 50 f4 ff 	vmovsd xmm2,QWORD PTR [rbp-0xbb0]
    2303:	ff 
    2304:	c5 eb 58 d2          	vaddsd xmm2,xmm2,xmm2
    2308:	c5 cb 58 d2          	vaddsd xmm2,xmm6,xmm2
    230c:	62 f1 8f 00 59 b5 d0 	vmulsd xmm6,xmm30,QWORD PTR [rbp-0x1230]
    2313:	ed ff ff 
    2316:	c5 eb 58 d6          	vaddsd xmm2,xmm2,xmm6
    231a:	c5 bb 59 b5 d0 e1 ff 	vmulsd xmm6,xmm8,QWORD PTR [rbp-0x1e30]
    2321:	ff 
    2322:	c5 eb 58 95 50 ef ff 	vaddsd xmm2,xmm2,QWORD PTR [rbp-0x10b0]
    2329:	ff 
    232a:	c5 eb 58 d6          	vaddsd xmm2,xmm2,xmm6
    232e:	62 f1 f7 00 59 b5 50 	vmulsd xmm6,xmm17,QWORD PTR [rbp-0x16b0]
    2335:	e9 ff ff 
    2338:	c5 eb 58 95 10 e5 ff 	vaddsd xmm2,xmm2,QWORD PTR [rbp-0x1af0]
    233f:	ff 
    2340:	c5 eb 58 d6          	vaddsd xmm2,xmm2,xmm6
        c[i + 14*ldc] = dotp;
    2344:	c4 a1 7b 11 14 e1    	vmovsd QWORD PTR [rcx+r12*8],xmm2
        dotp = 12.0*b[i + 18*ldb] + 25.0*b[i + 25*ldb] + 16.0*b[i + 55*ldb] + 5.0*b[i + 63*ldb] + 4.0*b[i + 94*ldb] + 18.0*b[i + 96*ldb];
    234a:	45 8d 24 06          	lea    r12d,[r14+rax*1]
    234e:	44 8b b5 94 db ff ff 	mov    r14d,DWORD PTR [rbp-0x246c]
    2355:	4d 63 e4             	movsxd r12,r12d
    2358:	c4 a1 7b 10 14 e6    	vmovsd xmm2,QWORD PTR [rsi+r12*8]
    235e:	45 8d 24 06          	lea    r12d,[r14+rax*1]
    2362:	44 8b b5 1c dc ff ff 	mov    r14d,DWORD PTR [rbp-0x23e4]
    2369:	4d 63 e4             	movsxd r12,r12d
    236c:	c5 fb 11 95 90 f4 ff 	vmovsd QWORD PTR [rbp-0xb70],xmm2
    2373:	ff 
    2374:	c4 a1 7b 10 14 e6    	vmovsd xmm2,QWORD PTR [rsi+r12*8]
    237a:	45 8d 24 06          	lea    r12d,[r14+rax*1]
    237e:	4d 63 e4             	movsxd r12,r12d
    2381:	c5 fb 11 95 d0 f4 ff 	vmovsd QWORD PTR [rbp-0xb30],xmm2
    2388:	ff 
    2389:	c4 a1 7b 10 14 e6    	vmovsd xmm2,QWORD PTR [rsi+r12*8]
    238f:	c5 fb 10 b5 10 e9 ff 	vmovsd xmm6,QWORD PTR [rbp-0x16f0]
    2396:	ff 
    2397:	44 8b b5 cc dc ff ff 	mov    r14d,DWORD PTR [rbp-0x2334]
    239e:	c5 fb 11 95 10 f5 ff 	vmovsd QWORD PTR [rbp-0xaf0],xmm2
    23a5:	ff 
    23a6:	c5 cb 59 f7          	vmulsd xmm6,xmm6,xmm7
    23aa:	c5 a3 59 bd 90 f4 ff 	vmulsd xmm7,xmm11,QWORD PTR [rbp-0xb70]
    23b1:	ff 
    23b2:	45 8d 24 06          	lea    r12d,[r14+rax*1]
    23b6:	44 8b b5 6c db ff ff 	mov    r14d,DWORD PTR [rbp-0x2494]
    23bd:	4d 63 e4             	movsxd r12,r12d
    23c0:	c4 a1 7b 10 14 e6    	vmovsd xmm2,QWORD PTR [rsi+r12*8]
    23c6:	45 8d 24 06          	lea    r12d,[r14+rax*1]
        dotp = 10.0*b[i + 9*ldb] + 21.0*b[i + 43*ldb] + 10.0*b[i + 47*ldb] + 19.0*b[i + 120*ldb] + 28.0*b[i + 125*ldb];
    23ca:	44 8b b5 c8 dc ff ff 	mov    r14d,DWORD PTR [rbp-0x2338]
        dotp = 12.0*b[i + 18*ldb] + 25.0*b[i + 25*ldb] + 16.0*b[i + 55*ldb] + 5.0*b[i + 63*ldb] + 4.0*b[i + 94*ldb] + 18.0*b[i + 96*ldb];
    23d1:	4d 63 e4             	movsxd r12,r12d
    23d4:	c5 fb 11 95 90 f0 ff 	vmovsd QWORD PTR [rbp-0xf70],xmm2
    23db:	ff 
    23dc:	c4 a1 7b 10 14 e6    	vmovsd xmm2,QWORD PTR [rsi+r12*8]
        c[i + 15*ldc] = dotp;
    23e2:	4c 63 e2             	movsxd r12,edx
        c[i + 16*ldc] = dotp;
    23e5:	44 01 c2             	add    edx,r8d
        dotp = 12.0*b[i + 18*ldb] + 25.0*b[i + 25*ldb] + 16.0*b[i + 55*ldb] + 5.0*b[i + 63*ldb] + 4.0*b[i + 94*ldb] + 18.0*b[i + 96*ldb];
    23e8:	c5 cb 58 f7          	vaddsd xmm6,xmm6,xmm7
    23ec:	c5 bb 59 bd d0 f4 ff 	vmulsd xmm7,xmm8,QWORD PTR [rbp-0xb30]
    23f3:	ff 
    23f4:	c5 cb 58 ff          	vaddsd xmm7,xmm6,xmm7
    23f8:	62 f1 e7 00 59 b5 10 	vmulsd xmm6,xmm19,QWORD PTR [rbp-0xaf0]
    23ff:	f5 ff ff 
    2402:	c5 c3 58 fe          	vaddsd xmm7,xmm7,xmm6
    2406:	62 f1 9f 00 59 b5 90 	vmulsd xmm6,xmm28,QWORD PTR [rbp-0xf70]
    240d:	f0 ff ff 
    2410:	c5 c3 58 f6          	vaddsd xmm6,xmm7,xmm6
    2414:	62 b1 ef 08 59 fa    	vmulsd xmm7,xmm2,xmm18
    241a:	c5 cb 58 f7          	vaddsd xmm6,xmm6,xmm7
        c[i + 15*ldc] = dotp;
    241e:	c4 a1 7b 11 34 e1    	vmovsd QWORD PTR [rcx+r12*8],xmm6
        dotp = 10.0*b[i + 9*ldb] + 21.0*b[i + 43*ldb] + 10.0*b[i + 47*ldb] + 19.0*b[i + 120*ldb] + 28.0*b[i + 125*ldb];
    2424:	45 8d 24 06          	lea    r12d,[r14+rax*1]
    2428:	44 8b b5 c4 dc ff ff 	mov    r14d,DWORD PTR [rbp-0x233c]
    242f:	4d 63 e4             	movsxd r12,r12d
    2432:	c4 a1 7b 10 3c e6    	vmovsd xmm7,QWORD PTR [rsi+r12*8]
    2438:	45 8d 24 06          	lea    r12d,[r14+rax*1]
        dotp = 23.0*b[i + 25*ldb] + 29.0*b[i + 77*ldb] + 2.0*b[i + 86*ldb] + 26.0*b[i + 99*ldb];
    243c:	44 8b b5 c0 dc ff ff 	mov    r14d,DWORD PTR [rbp-0x2340]
        dotp = 10.0*b[i + 9*ldb] + 21.0*b[i + 43*ldb] + 10.0*b[i + 47*ldb] + 19.0*b[i + 120*ldb] + 28.0*b[i + 125*ldb];
    2443:	4d 63 e4             	movsxd r12,r12d
    2446:	c5 db 59 f7          	vmulsd xmm6,xmm4,xmm7
    244a:	c4 21 7b 10 0c e6    	vmovsd xmm9,QWORD PTR [rsi+r12*8]
    2450:	c5 fb 11 bd 90 fd ff 	vmovsd QWORD PTR [rbp-0x270],xmm7
    2457:	ff 
        c[i + 16*ldc] = dotp;
    2458:	4c 63 e2             	movsxd r12,edx
        dotp = 10.0*b[i + 9*ldb] + 21.0*b[i + 43*ldb] + 10.0*b[i + 47*ldb] + 19.0*b[i + 120*ldb] + 28.0*b[i + 125*ldb];
    245b:	62 91 c7 00 59 ff    	vmulsd xmm7,xmm23,xmm31
        c[i + 17*ldc] = dotp;
    2461:	44 01 c2             	add    edx,r8d
        dotp = 10.0*b[i + 9*ldb] + 21.0*b[i + 43*ldb] + 10.0*b[i + 47*ldb] + 19.0*b[i + 120*ldb] + 28.0*b[i + 125*ldb];
    2464:	c5 7b 11 8d 90 e9 ff 	vmovsd QWORD PTR [rbp-0x1670],xmm9
    246b:	ff 
    246c:	c5 cb 58 ff          	vaddsd xmm7,xmm6,xmm7
    2470:	62 f1 c7 00 59 b5 50 	vmulsd xmm6,xmm23,QWORD PTR [rbp-0x4b0]
    2477:	fb ff ff 
    247a:	c5 c3 58 fe          	vaddsd xmm7,xmm7,xmm6
    247e:	c5 93 59 b5 10 e3 ff 	vmulsd xmm6,xmm13,QWORD PTR [rbp-0x1cf0]
    2485:	ff 
    2486:	c5 c3 58 f6          	vaddsd xmm6,xmm7,xmm6
    248a:	c4 c1 2b 59 f9       	vmulsd xmm7,xmm10,xmm9
    248f:	c5 cb 58 f7          	vaddsd xmm6,xmm6,xmm7
        dotp = 23.0*b[i + 25*ldb] + 29.0*b[i + 77*ldb] + 2.0*b[i + 86*ldb] + 26.0*b[i + 99*ldb];
    2493:	c5 fb 59 bd 10 e9 ff 	vmulsd xmm7,xmm0,QWORD PTR [rbp-0x16f0]
    249a:	ff 
        c[i + 16*ldc] = dotp;
    249b:	c4 a1 7b 11 34 e1    	vmovsd QWORD PTR [rcx+r12*8],xmm6
        dotp = 23.0*b[i + 25*ldb] + 29.0*b[i + 77*ldb] + 2.0*b[i + 86*ldb] + 26.0*b[i + 99*ldb];
    24a1:	45 8d 24 06          	lea    r12d,[r14+rax*1]
    24a5:	44 8b b5 bc dc ff ff 	mov    r14d,DWORD PTR [rbp-0x2344]
    24ac:	c5 8b 59 b5 90 e7 ff 	vmulsd xmm6,xmm14,QWORD PTR [rbp-0x1870]
    24b3:	ff 
    24b4:	4d 63 e4             	movsxd r12,r12d
    24b7:	c5 fb 11 bd 18 e5 ff 	vmovsd QWORD PTR [rbp-0x1ae8],xmm7
    24be:	ff 
    24bf:	c4 a1 7b 10 3c e6    	vmovsd xmm7,QWORD PTR [rsi+r12*8]
    24c5:	45 8d 24 06          	lea    r12d,[r14+rax*1]
    24c9:	4d 63 e4             	movsxd r12,r12d
    24cc:	c5 79 28 cf          	vmovapd xmm9,xmm7
    24d0:	c4 a1 7b 10 3c e6    	vmovsd xmm7,QWORD PTR [rsi+r12*8]
        c[i + 17*ldc] = dotp;
    24d6:	4c 63 e2             	movsxd r12,edx
        c[i + 18*ldc] = dotp;
    24d9:	44 01 c2             	add    edx,r8d
        dotp = 23.0*b[i + 25*ldb] + 29.0*b[i + 77*ldb] + 2.0*b[i + 86*ldb] + 26.0*b[i + 99*ldb];
    24dc:	c5 7b 11 8d 50 f5 ff 	vmovsd QWORD PTR [rbp-0xab0],xmm9
    24e3:	ff 
    24e4:	62 61 fd 48 28 ff    	vmovapd zmm31,zmm7
    24ea:	c5 cb 58 bd 18 e5 ff 	vaddsd xmm7,xmm6,QWORD PTR [rbp-0x1ae8]
    24f1:	ff 
    24f2:	c4 c1 33 58 f1       	vaddsd xmm6,xmm9,xmm9
    24f7:	62 61 ff 08 11 bd 20 	vmovsd QWORD PTR [rbp-0x1ae0],xmm31
    24fe:	e5 ff ff 
    2501:	c5 c3 58 f6          	vaddsd xmm6,xmm7,xmm6
    2505:	62 91 e7 08 59 ff    	vmulsd xmm7,xmm3,xmm31
    250b:	c5 cb 58 f7          	vaddsd xmm6,xmm6,xmm7
        c[i + 17*ldc] = dotp;
    250f:	c4 a1 7b 11 34 e1    	vmovsd QWORD PTR [rcx+r12*8],xmm6
        dotp = 8.0*b[i + 14*ldb] + 20.0*b[i + 42*ldb] + 19.0*b[i + 45*ldb] + 2.0*b[i + 84*ldb] + 7.0*b[i + 90*ldb] + 6.0*b[i + 94*ldb] + 23.0*b[i + 107*ldb];
    2515:	44 8b b5 b8 dc ff ff 	mov    r14d,DWORD PTR [rbp-0x2348]
    251c:	c5 d3 59 b5 10 e7 ff 	vmulsd xmm6,xmm5,QWORD PTR [rbp-0x18f0]
    2523:	ff 
    2524:	45 8d 24 06          	lea    r12d,[r14+rax*1]
    2528:	44 8b b5 90 db ff ff 	mov    r14d,DWORD PTR [rbp-0x2470]
    252f:	4d 63 e4             	movsxd r12,r12d
    2532:	c4 a1 7b 10 3c e6    	vmovsd xmm7,QWORD PTR [rsi+r12*8]
    2538:	45 8d 24 06          	lea    r12d,[r14+rax*1]
        dotp = 20.0*b[i + 13*ldb] + 19.0*b[i + 17*ldb] + 1.0*b[i + 26*ldb] + 9.0*b[i + 49*ldb] + 10.0*b[i + 51*ldb] + 15.0*b[i + 59*ldb] + 10.0*b[i + 79*ldb] + 1.0*b[i + 97*ldb] + 7.0*b[i + 114*ldb];
    253c:	44 8b b5 b4 dc ff ff 	mov    r14d,DWORD PTR [rbp-0x234c]
        dotp = 8.0*b[i + 14*ldb] + 20.0*b[i + 42*ldb] + 19.0*b[i + 45*ldb] + 2.0*b[i + 84*ldb] + 7.0*b[i + 90*ldb] + 6.0*b[i + 94*ldb] + 23.0*b[i + 107*ldb];
    2543:	4d 63 e4             	movsxd r12,r12d
    2546:	62 61 fd 48 28 ff    	vmovapd zmm31,zmm7
    254c:	c4 a1 7b 10 3c e6    	vmovsd xmm7,QWORD PTR [rsi+r12*8]
        c[i + 18*ldc] = dotp;
    2552:	4c 63 e2             	movsxd r12,edx
        c[i + 19*ldc] = dotp;
    2555:	44 01 c2             	add    edx,r8d
        dotp = 8.0*b[i + 14*ldb] + 20.0*b[i + 42*ldb] + 19.0*b[i + 45*ldb] + 2.0*b[i + 84*ldb] + 7.0*b[i + 90*ldb] + 6.0*b[i + 94*ldb] + 23.0*b[i + 107*ldb];
    2558:	62 61 ff 08 11 bd 28 	vmovsd QWORD PTR [rbp-0x1ad8],xmm31
    255f:	e5 ff ff 
    2562:	c5 79 28 cf          	vmovapd xmm9,xmm7
    2566:	c5 fb 10 bd 90 f8 ff 	vmovsd xmm7,QWORD PTR [rbp-0x770]
    256d:	ff 
    256e:	c5 7b 11 8d 90 f5 ff 	vmovsd QWORD PTR [rbp-0xa70],xmm9
    2575:	ff 
    2576:	c5 c3 58 ff          	vaddsd xmm7,xmm7,xmm7
    257a:	c5 fb 11 bd 30 e5 ff 	vmovsd QWORD PTR [rbp-0x1ad0],xmm7
    2581:	ff 
    2582:	62 91 97 00 59 ff    	vmulsd xmm7,xmm29,xmm31
    2588:	c5 c3 58 f6          	vaddsd xmm6,xmm7,xmm6
    258c:	c4 c1 13 59 f9       	vmulsd xmm7,xmm13,xmm9
        dotp = 20.0*b[i + 13*ldb] + 19.0*b[i + 17*ldb] + 1.0*b[i + 26*ldb] + 9.0*b[i + 49*ldb] + 10.0*b[i + 51*ldb] + 15.0*b[i + 59*ldb] + 10.0*b[i + 79*ldb] + 1.0*b[i + 97*ldb] + 7.0*b[i + 114*ldb];
    2591:	62 71 97 00 59 4d a2 	vmulsd xmm9,xmm29,QWORD PTR [rbp-0x2f0]
        dotp = 8.0*b[i + 14*ldb] + 20.0*b[i + 42*ldb] + 19.0*b[i + 45*ldb] + 2.0*b[i + 84*ldb] + 7.0*b[i + 90*ldb] + 6.0*b[i + 94*ldb] + 23.0*b[i + 107*ldb];
    2598:	c5 cb 58 f7          	vaddsd xmm6,xmm6,xmm7
    259c:	62 f1 a7 00 59 bd d0 	vmulsd xmm7,xmm27,QWORD PTR [rbp-0xd30]
    25a3:	f2 ff ff 
    25a6:	c5 cb 58 b5 30 e5 ff 	vaddsd xmm6,xmm6,QWORD PTR [rbp-0x1ad0]
    25ad:	ff 
    25ae:	c5 cb 58 ff          	vaddsd xmm7,xmm6,xmm7
    25b2:	c5 9b 59 b5 90 f0 ff 	vmulsd xmm6,xmm12,QWORD PTR [rbp-0xf70]
    25b9:	ff 
    25ba:	c5 c3 58 f6          	vaddsd xmm6,xmm7,xmm6
    25be:	c5 fb 59 bd 10 fb ff 	vmulsd xmm7,xmm0,QWORD PTR [rbp-0x4f0]
    25c5:	ff 
    25c6:	c5 cb 58 f7          	vaddsd xmm6,xmm6,xmm7
        c[i + 18*ldc] = dotp;
    25ca:	c4 a1 7b 11 34 e1    	vmovsd QWORD PTR [rcx+r12*8],xmm6
        dotp = 20.0*b[i + 13*ldb] + 19.0*b[i + 17*ldb] + 1.0*b[i + 26*ldb] + 9.0*b[i + 49*ldb] + 10.0*b[i + 51*ldb] + 15.0*b[i + 59*ldb] + 10.0*b[i + 79*ldb] + 1.0*b[i + 97*ldb] + 7.0*b[i + 114*ldb];
    25d0:	45 8d 24 06          	lea    r12d,[r14+rax*1]
    25d4:	62 b1 97 08 59 f6    	vmulsd xmm6,xmm13,xmm22
        dotp = 27.0*b[i + 27*ldb] + 10.0*b[i + 51*ldb] + 27.0*b[i + 72*ldb] + 27.0*b[i + 86*ldb] + 30.0*b[i + 87*ldb] + 21.0*b[i + 90*ldb] + 4.0*b[i + 95*ldb] + 4.0*b[i + 96*ldb];
    25da:	44 8b b5 18 dc ff ff 	mov    r14d,DWORD PTR [rbp-0x23e8]
        dotp = 20.0*b[i + 13*ldb] + 19.0*b[i + 17*ldb] + 1.0*b[i + 26*ldb] + 9.0*b[i + 49*ldb] + 10.0*b[i + 51*ldb] + 15.0*b[i + 59*ldb] + 10.0*b[i + 79*ldb] + 1.0*b[i + 97*ldb] + 7.0*b[i + 114*ldb];
    25e1:	4d 63 e4             	movsxd r12,r12d
    25e4:	c4 a1 7b 10 3c e6    	vmovsd xmm7,QWORD PTR [rsi+r12*8]
        c[i + 19*ldc] = dotp;
    25ea:	4c 63 e2             	movsxd r12,edx
        c[i + 20*ldc] = dotp;
    25ed:	44 01 c2             	add    edx,r8d
        dotp = 20.0*b[i + 13*ldb] + 19.0*b[i + 17*ldb] + 1.0*b[i + 26*ldb] + 9.0*b[i + 49*ldb] + 10.0*b[i + 51*ldb] + 15.0*b[i + 59*ldb] + 10.0*b[i + 79*ldb] + 1.0*b[i + 97*ldb] + 7.0*b[i + 114*ldb];
    25f0:	62 61 fd 48 28 ff    	vmovapd zmm31,zmm7
    25f6:	c4 c1 4b 58 f1       	vaddsd xmm6,xmm6,xmm9
    25fb:	62 11 df 00 59 cf    	vmulsd xmm9,xmm20,xmm31
    2601:	c5 cb 58 b5 50 ee ff 	vaddsd xmm6,xmm6,QWORD PTR [rbp-0x11b0]
    2608:	ff 
    2609:	62 61 ff 08 11 bd 38 	vmovsd QWORD PTR [rbp-0x1ac8],xmm31
    2610:	e5 ff ff 
    2613:	62 f1 c7 00 59 bd d0 	vmulsd xmm7,xmm23,QWORD PTR [rbp-0x730]
    261a:	f8 ff ff 
    261d:	c4 c1 4b 58 f1       	vaddsd xmm6,xmm6,xmm9
    2622:	c5 4b 58 cf          	vaddsd xmm9,xmm6,xmm7
    2626:	62 f1 ff 00 59 75 ba 	vmulsd xmm6,xmm16,QWORD PTR [rbp-0x230]
    262d:	c5 b3 58 f6          	vaddsd xmm6,xmm9,xmm6
    2631:	62 71 c7 00 59 4d ca 	vmulsd xmm9,xmm23,QWORD PTR [rbp-0x1b0]
    2638:	c4 c1 4b 58 f1       	vaddsd xmm6,xmm6,xmm9
    263d:	62 71 a7 00 59 8d 10 	vmulsd xmm9,xmm27,QWORD PTR [rbp-0x6f0]
    2644:	f9 ff ff 
    2647:	c5 cb 58 b5 10 ee ff 	vaddsd xmm6,xmm6,QWORD PTR [rbp-0x11f0]
    264e:	ff 
    264f:	c4 c1 4b 58 f1       	vaddsd xmm6,xmm6,xmm9
        c[i + 19*ldc] = dotp;
    2654:	c4 a1 7b 11 34 e1    	vmovsd QWORD PTR [rcx+r12*8],xmm6
        dotp = 27.0*b[i + 27*ldb] + 10.0*b[i + 51*ldb] + 27.0*b[i + 72*ldb] + 27.0*b[i + 86*ldb] + 30.0*b[i + 87*ldb] + 21.0*b[i + 90*ldb] + 4.0*b[i + 95*ldb] + 4.0*b[i + 96*ldb];
    265a:	45 8d 24 06          	lea    r12d,[r14+rax*1]
    265e:	44 8b b5 48 dc ff ff 	mov    r14d,DWORD PTR [rbp-0x23b8]
    2665:	4d 63 e4             	movsxd r12,r12d
    2668:	62 21 ff 08 10 3c e6 	vmovsd xmm31,QWORD PTR [rsi+r12*8]
    266f:	45 8d 24 06          	lea    r12d,[r14+rax*1]
    2673:	44 8b b5 b0 dc ff ff 	mov    r14d,DWORD PTR [rbp-0x2350]
    267a:	4d 63 e4             	movsxd r12,r12d
    267d:	62 91 bf 00 59 f7    	vmulsd xmm6,xmm24,xmm31
    2683:	62 a1 ff 08 10 34 e6 	vmovsd xmm22,QWORD PTR [rsi+r12*8]
    268a:	45 8d 24 06          	lea    r12d,[r14+rax*1]
    268e:	62 61 ff 08 11 bd d0 	vmovsd QWORD PTR [rbp-0x1630],xmm31
    2695:	e9 ff ff 
    2698:	4d 63 e4             	movsxd r12,r12d
    269b:	c4 21 7b 10 0c e6    	vmovsd xmm9,QWORD PTR [rsi+r12*8]
        c[i + 20*ldc] = dotp;
    26a1:	4c 63 e2             	movsxd r12,edx
        c[i + 21*ldc] = dotp;
    26a4:	44 01 c2             	add    edx,r8d
        dotp = 27.0*b[i + 27*ldb] + 10.0*b[i + 51*ldb] + 27.0*b[i + 72*ldb] + 27.0*b[i + 86*ldb] + 30.0*b[i + 87*ldb] + 21.0*b[i + 90*ldb] + 4.0*b[i + 95*ldb] + 4.0*b[i + 96*ldb];
    26a7:	62 e1 ff 08 11 b5 d0 	vmovsd QWORD PTR [rbp-0xa30],xmm22
    26ae:	f5 ff ff 
        dotp = 24.0*b[i + 33*ldb] + 9.0*b[i + 43*ldb] + 27.0*b[i + 57*ldb] + 3.0*b[i + 76*ldb] + 18.0*b[i + 80*ldb] + 6.0*b[i + 96*ldb] + 5.0*b[i + 123*ldb];
    26b1:	44 8b b5 14 dc ff ff 	mov    r14d,DWORD PTR [rbp-0x23ec]
        dotp = 27.0*b[i + 27*ldb] + 10.0*b[i + 51*ldb] + 27.0*b[i + 72*ldb] + 27.0*b[i + 86*ldb] + 30.0*b[i + 87*ldb] + 21.0*b[i + 90*ldb] + 4.0*b[i + 95*ldb] + 4.0*b[i + 96*ldb];
    26b8:	c5 7b 11 8d 40 e5 ff 	vmovsd QWORD PTR [rbp-0x1ac0],xmm9
    26bf:	ff 
    26c0:	c5 cb 58 ff          	vaddsd xmm7,xmm6,xmm7
    26c4:	62 b1 bf 00 59 f6    	vmulsd xmm6,xmm24,xmm22
        dotp = 24.0*b[i + 33*ldb] + 9.0*b[i + 43*ldb] + 27.0*b[i + 57*ldb] + 3.0*b[i + 76*ldb] + 18.0*b[i + 80*ldb] + 6.0*b[i + 96*ldb] + 5.0*b[i + 123*ldb];
    26ca:	62 81 fd 48 28 f2    	vmovapd zmm22,zmm26
        dotp = 27.0*b[i + 27*ldb] + 10.0*b[i + 51*ldb] + 27.0*b[i + 72*ldb] + 27.0*b[i + 86*ldb] + 30.0*b[i + 87*ldb] + 21.0*b[i + 90*ldb] + 4.0*b[i + 95*ldb] + 4.0*b[i + 96*ldb];
    26d0:	c5 c3 58 f6          	vaddsd xmm6,xmm7,xmm6
    26d4:	62 f1 bf 00 59 bd 50 	vmulsd xmm7,xmm24,QWORD PTR [rbp-0xab0]
    26db:	f5 ff ff 
    26de:	c5 cb 58 f7          	vaddsd xmm6,xmm6,xmm7
    26e2:	c5 f3 59 bd 10 fe ff 	vmulsd xmm7,xmm1,QWORD PTR [rbp-0x1f0]
    26e9:	ff 
    26ea:	c5 cb 58 ff          	vaddsd xmm7,xmm6,xmm7
    26ee:	c5 db 59 b5 d0 f2 ff 	vmulsd xmm6,xmm4,QWORD PTR [rbp-0xd30]
    26f5:	ff 
    26f6:	c5 c3 58 fe          	vaddsd xmm7,xmm7,xmm6
    26fa:	62 d1 9f 00 59 f1    	vmulsd xmm6,xmm28,xmm9
    2700:	c5 c3 58 f6          	vaddsd xmm6,xmm7,xmm6
    2704:	62 91 ef 08 59 fc    	vmulsd xmm7,xmm2,xmm28
    270a:	c5 cb 58 f7          	vaddsd xmm6,xmm6,xmm7
        c[i + 20*ldc] = dotp;
    270e:	c4 a1 7b 11 34 e1    	vmovsd QWORD PTR [rcx+r12*8],xmm6
        dotp = 24.0*b[i + 33*ldb] + 9.0*b[i + 43*ldb] + 27.0*b[i + 57*ldb] + 3.0*b[i + 76*ldb] + 18.0*b[i + 80*ldb] + 6.0*b[i + 96*ldb] + 5.0*b[i + 123*ldb];
    2714:	45 8d 24 06          	lea    r12d,[r14+rax*1]
    2718:	44 8b b5 ac dc ff ff 	mov    r14d,DWORD PTR [rbp-0x2354]
    271f:	62 f1 df 00 59 75 b2 	vmulsd xmm6,xmm20,QWORD PTR [rbp-0x270]
    2726:	4d 63 e4             	movsxd r12,r12d
    2729:	c4 a1 7b 10 3c e6    	vmovsd xmm7,QWORD PTR [rsi+r12*8]
    272f:	45 8d 24 06          	lea    r12d,[r14+rax*1]
        dotp = 13.0*b[i + 15*ldb] + 21.0*b[i + 40*ldb] + 11.0*b[i + 96*ldb] + 28.0*b[i + 102*ldb] + 15.0*b[i + 105*ldb] + 25.0*b[i + 107*ldb] + 2.0*b[i + 117*ldb];
    2733:	44 8b b5 10 dc ff ff 	mov    r14d,DWORD PTR [rbp-0x23f0]
        dotp = 24.0*b[i + 33*ldb] + 9.0*b[i + 43*ldb] + 27.0*b[i + 57*ldb] + 3.0*b[i + 76*ldb] + 18.0*b[i + 80*ldb] + 6.0*b[i + 96*ldb] + 5.0*b[i + 123*ldb];
    273a:	4d 63 e4             	movsxd r12,r12d
    273d:	62 61 fd 48 28 ff    	vmovapd zmm31,zmm7
    2743:	62 61 ff 08 11 bd 10 	vmovsd QWORD PTR [rbp-0x15f0],xmm31
    274a:	ea ff ff 
    274d:	c4 c1 6b 59 fc       	vmulsd xmm7,xmm2,xmm12
    2752:	c5 fb 11 bd 90 dd ff 	vmovsd QWORD PTR [rbp-0x2270],xmm7
    2759:	ff 
    275a:	c4 a1 7b 10 3c e6    	vmovsd xmm7,QWORD PTR [rsi+r12*8]
        c[i + 21*ldc] = dotp;
    2760:	4c 63 e2             	movsxd r12,edx
        c[i + 22*ldc] = dotp;
    2763:	44 01 c2             	add    edx,r8d
        dotp = 24.0*b[i + 33*ldb] + 9.0*b[i + 43*ldb] + 27.0*b[i + 57*ldb] + 3.0*b[i + 76*ldb] + 18.0*b[i + 80*ldb] + 6.0*b[i + 96*ldb] + 5.0*b[i + 123*ldb];
    2766:	c5 79 28 cf          	vmovapd xmm9,xmm7
    276a:	c5 7b 11 8d 50 ea ff 	vmovsd QWORD PTR [rbp-0x15b0],xmm9
    2771:	ff 
    2772:	62 91 b7 00 59 ff    	vmulsd xmm7,xmm25,xmm31
    2778:	c5 cb 58 ff          	vaddsd xmm7,xmm6,xmm7
    277c:	62 f1 bf 00 59 75 9a 	vmulsd xmm6,xmm24,QWORD PTR [rbp-0x330]
    2783:	c5 c3 58 fe          	vaddsd xmm7,xmm7,xmm6
    2787:	62 f1 af 00 59 b5 50 	vmulsd xmm6,xmm26,QWORD PTR [rbp-0x7b0]
    278e:	f8 ff ff 
    2791:	c5 c3 58 f6          	vaddsd xmm6,xmm7,xmm6
    2795:	62 b1 d7 00 59 fa    	vmulsd xmm7,xmm21,xmm18
    279b:	c5 cb 58 f7          	vaddsd xmm6,xmm6,xmm7
    279f:	62 d1 e7 00 59 f9    	vmulsd xmm7,xmm19,xmm9
    27a5:	c5 cb 58 b5 90 dd ff 	vaddsd xmm6,xmm6,QWORD PTR [rbp-0x2270]
    27ac:	ff 
    27ad:	c5 cb 58 f7          	vaddsd xmm6,xmm6,xmm7
        c[i + 21*ldc] = dotp;
    27b1:	c4 a1 7b 11 34 e1    	vmovsd QWORD PTR [rcx+r12*8],xmm6
        dotp = 13.0*b[i + 15*ldb] + 21.0*b[i + 40*ldb] + 11.0*b[i + 96*ldb] + 28.0*b[i + 102*ldb] + 15.0*b[i + 105*ldb] + 25.0*b[i + 107*ldb] + 2.0*b[i + 117*ldb];
    27b7:	45 8d 24 06          	lea    r12d,[r14+rax*1]
    27bb:	44 8b b5 0c dc ff ff 	mov    r14d,DWORD PTR [rbp-0x23f4]
    27c2:	4d 63 e4             	movsxd r12,r12d
    27c5:	62 21 ff 08 10 14 e6 	vmovsd xmm26,QWORD PTR [rsi+r12*8]
    27cc:	45 8d 24 06          	lea    r12d,[r14+rax*1]
    27d0:	44 8b b5 a8 dc ff ff 	mov    r14d,DWORD PTR [rbp-0x2358]
    27d7:	4d 63 e4             	movsxd r12,r12d
    27da:	62 a1 ff 08 10 2c e6 	vmovsd xmm21,QWORD PTR [rsi+r12*8]
    27e1:	45 8d 24 06          	lea    r12d,[r14+rax*1]
    27e5:	44 8b b5 8c db ff ff 	mov    r14d,DWORD PTR [rbp-0x2474]
    27ec:	62 91 8f 00 59 f2    	vmulsd xmm6,xmm30,xmm26
    27f2:	62 61 ff 08 11 95 50 	vmovsd QWORD PTR [rbp-0x5b0],xmm26
    27f9:	fa ff ff 
    27fc:	4d 63 e4             	movsxd r12,r12d
    27ff:	62 61 ff 08 10 95 10 	vmovsd xmm26,QWORD PTR [rbp-0x4f0]
    2806:	fb ff ff 
    2809:	c4 a1 7b 10 3c e6    	vmovsd xmm7,QWORD PTR [rsi+r12*8]
    280f:	45 8d 24 06          	lea    r12d,[r14+rax*1]
    2813:	62 e1 ff 08 11 ad d0 	vmovsd QWORD PTR [rbp-0xf30],xmm21
    281a:	f0 ff ff 
    281d:	4d 63 e4             	movsxd r12,r12d
    2820:	62 61 fd 48 28 ff    	vmovapd zmm31,zmm7
    2826:	c4 a1 7b 10 3c e6    	vmovsd xmm7,QWORD PTR [rsi+r12*8]
        c[i + 22*ldc] = dotp;
    282c:	4c 63 e2             	movsxd r12,edx
        c[i + 23*ldc] = dotp;
    282f:	44 01 c2             	add    edx,r8d
        dotp = 13.0*b[i + 15*ldb] + 21.0*b[i + 40*ldb] + 11.0*b[i + 96*ldb] + 28.0*b[i + 102*ldb] + 15.0*b[i + 105*ldb] + 25.0*b[i + 107*ldb] + 2.0*b[i + 117*ldb];
    2832:	62 61 ff 08 11 bd 90 	vmovsd QWORD PTR [rbp-0x1570],xmm31
    2839:	ea ff ff 
    283c:	c5 fb 11 bd d0 e4 ff 	vmovsd QWORD PTR [rbp-0x1b30],xmm7
    2843:	ff 
    2844:	62 f1 ff 00 59 ff    	vmulsd xmm7,xmm16,xmm7
    284a:	c5 79 28 cf          	vmovapd xmm9,xmm7
    284e:	c5 7b 11 8d d8 da ff 	vmovsd QWORD PTR [rbp-0x2528],xmm9
    2855:	ff 
    2856:	62 b1 df 08 59 fd    	vmulsd xmm7,xmm4,xmm21
    285c:	c5 c3 58 fe          	vaddsd xmm7,xmm7,xmm6
    2860:	c4 c1 6b 59 f7       	vmulsd xmm6,xmm2,xmm15
    2865:	c5 c3 58 f6          	vaddsd xmm6,xmm7,xmm6
    2869:	62 91 af 08 59 ff    	vmulsd xmm7,xmm10,xmm31
    286f:	c5 cb 58 f7          	vaddsd xmm6,xmm6,xmm7
    2873:	c4 c1 4b 58 f1       	vaddsd xmm6,xmm6,xmm9
    2878:	c5 7b 10 8d 50 ff ff 	vmovsd xmm9,QWORD PTR [rbp-0xb0]
    287f:	ff 
    2880:	62 e1 ff 08 10 6d 82 	vmovsd xmm21,QWORD PTR [rbp-0x3f0]
        dotp = 11.0*b[i + 5*ldb] + 28.0*b[i + 11*ldb] + 20.0*b[i + 18*ldb] + 30.0*b[i + 20*ldb] + 22.0*b[i + 55*ldb] + 13.0*b[i + 79*ldb] + 10.0*b[i + 92*ldb];
    2887:	44 8b b5 04 dc ff ff 	mov    r14d,DWORD PTR [rbp-0x23fc]
        dotp = 13.0*b[i + 15*ldb] + 21.0*b[i + 40*ldb] + 11.0*b[i + 96*ldb] + 28.0*b[i + 102*ldb] + 15.0*b[i + 105*ldb] + 25.0*b[i + 107*ldb] + 2.0*b[i + 117*ldb];
    288e:	62 d1 af 00 59 f9    	vmulsd xmm7,xmm26,xmm9
    2894:	c5 cb 58 f7          	vaddsd xmm6,xmm6,xmm7
    2898:	62 b1 d7 00 58 fd    	vaddsd xmm7,xmm21,xmm21
    289e:	c5 cb 58 f7          	vaddsd xmm6,xmm6,xmm7
        c[i + 22*ldc] = dotp;
    28a2:	c4 a1 7b 11 34 e1    	vmovsd QWORD PTR [rcx+r12*8],xmm6
        dotp = 11.0*b[i + 5*ldb] + 28.0*b[i + 11*ldb] + 20.0*b[i + 18*ldb] + 30.0*b[i + 20*ldb] + 22.0*b[i + 55*ldb] + 13.0*b[i + 79*ldb] + 10.0*b[i + 92*ldb];
    28a8:	45 8d 24 06          	lea    r12d,[r14+rax*1]
    28ac:	c5 83 59 b5 d0 e8 ff 	vmulsd xmm6,xmm15,QWORD PTR [rbp-0x1730]
    28b3:	ff 
        dotp = 16.0*b[i + 2*ldb] + 12.0*b[i + 79*ldb] + 25.0*b[i + 103*ldb] + 9.0*b[i + 116*ldb];
    28b4:	44 8b b5 a4 dc ff ff 	mov    r14d,DWORD PTR [rbp-0x235c]
        dotp = 11.0*b[i + 5*ldb] + 28.0*b[i + 11*ldb] + 20.0*b[i + 18*ldb] + 30.0*b[i + 20*ldb] + 22.0*b[i + 55*ldb] + 13.0*b[i + 79*ldb] + 10.0*b[i + 92*ldb];
    28bb:	4d 63 e4             	movsxd r12,r12d
    28be:	62 21 ff 08 10 14 e6 	vmovsd xmm26,QWORD PTR [rsi+r12*8]
        c[i + 23*ldc] = dotp;
    28c5:	4c 63 e2             	movsxd r12,edx
        c[i + 24*ldc] = dotp;
    28c8:	44 01 c2             	add    edx,r8d
        dotp = 11.0*b[i + 5*ldb] + 28.0*b[i + 11*ldb] + 20.0*b[i + 18*ldb] + 30.0*b[i + 20*ldb] + 22.0*b[i + 55*ldb] + 13.0*b[i + 79*ldb] + 10.0*b[i + 92*ldb];
    28cb:	62 61 ff 08 11 95 10 	vmovsd QWORD PTR [rbp-0xef0],xmm26
    28d2:	f1 ff ff 
    28d5:	62 81 af 08 59 ea    	vmulsd xmm21,xmm10,xmm26
    28db:	62 61 ff 08 10 95 d0 	vmovsd xmm26,QWORD PTR [rbp-0xb30]
    28e2:	f4 ff ff 
    28e5:	62 61 af 00 59 55 d2 	vmulsd xmm26,xmm26,QWORD PTR [rbp-0x170]
    28ec:	62 e1 ff 08 11 ad e0 	vmovsd QWORD PTR [rbp-0x2520],xmm21
    28f3:	da ff ff 
    28f6:	62 b1 cf 08 58 fd    	vaddsd xmm7,xmm6,xmm21
    28fc:	62 f1 97 00 59 b5 90 	vmulsd xmm6,xmm29,QWORD PTR [rbp-0xb70]
    2903:	f4 ff ff 
    2906:	62 e1 ff 08 10 6d ca 	vmovsd xmm21,QWORD PTR [rbp-0x1b0]
    290d:	c5 c3 58 f6          	vaddsd xmm6,xmm7,xmm6
    2911:	c5 f3 59 bd 90 fa ff 	vmulsd xmm7,xmm1,QWORD PTR [rbp-0x570]
    2918:	ff 
    2919:	c5 cb 58 f7          	vaddsd xmm6,xmm6,xmm7
    291d:	62 b1 8f 00 59 fd    	vmulsd xmm7,xmm30,xmm21
    2923:	62 91 cf 08 58 f2    	vaddsd xmm6,xmm6,xmm26
    2929:	c5 cb 58 f7          	vaddsd xmm6,xmm6,xmm7
    292d:	62 f1 c7 00 59 bd 10 	vmulsd xmm7,xmm23,QWORD PTR [rbp-0x17f0]
    2934:	e8 ff ff 
    2937:	c5 cb 58 f7          	vaddsd xmm6,xmm6,xmm7
        c[i + 23*ldc] = dotp;
    293b:	c4 a1 7b 11 34 e1    	vmovsd QWORD PTR [rcx+r12*8],xmm6
        dotp = 16.0*b[i + 2*ldb] + 12.0*b[i + 79*ldb] + 25.0*b[i + 103*ldb] + 9.0*b[i + 116*ldb];
    2941:	45 8d 24 06          	lea    r12d,[r14+rax*1]
    2945:	c5 bb 59 b5 50 fc ff 	vmulsd xmm6,xmm8,QWORD PTR [rbp-0x3b0]
    294c:	ff 
        dotp = 27.0*b[i + 0*ldb] + 11.0*b[i + 24*ldb] + 30.0*b[i + 72*ldb] + 30.0*b[i + 85*ldb] + 17.0*b[i + 88*ldb] + 28.0*b[i + 118*ldb];
    294d:	44 8b b5 3c dd ff ff 	mov    r14d,DWORD PTR [rbp-0x22c4]
        dotp = 16.0*b[i + 2*ldb] + 12.0*b[i + 79*ldb] + 25.0*b[i + 103*ldb] + 9.0*b[i + 116*ldb];
    2954:	4d 63 e4             	movsxd r12,r12d
    2957:	c4 a1 7b 10 3c e6    	vmovsd xmm7,QWORD PTR [rsi+r12*8]
        c[i + 24*ldc] = dotp;
    295d:	4c 63 e2             	movsxd r12,edx
        c[i + 25*ldc] = dotp;
    2960:	44 01 c2             	add    edx,r8d
        dotp = 16.0*b[i + 2*ldb] + 12.0*b[i + 79*ldb] + 25.0*b[i + 103*ldb] + 9.0*b[i + 116*ldb];
    2963:	62 61 fd 48 28 ff    	vmovapd zmm31,zmm7
    2969:	62 61 ff 08 11 bd d0 	vmovsd QWORD PTR [rbp-0x1530],xmm31
    2970:	ea ff ff 
    2973:	62 b1 a7 08 59 fd    	vmulsd xmm7,xmm11,xmm21
        dotp = 27.0*b[i + 0*ldb] + 11.0*b[i + 24*ldb] + 30.0*b[i + 72*ldb] + 30.0*b[i + 85*ldb] + 17.0*b[i + 88*ldb] + 28.0*b[i + 118*ldb];
    2979:	62 a1 ff 08 10 2c d6 	vmovsd xmm21,QWORD PTR [rsi+r10*8]
    2980:	45 8d 14 06          	lea    r10d,[r14+rax*1]
    2984:	4d 63 d2             	movsxd r10,r10d
    2987:	44 8b b5 a0 dc ff ff 	mov    r14d,DWORD PTR [rbp-0x2360]
        dotp = 16.0*b[i + 2*ldb] + 12.0*b[i + 79*ldb] + 25.0*b[i + 103*ldb] + 9.0*b[i + 116*ldb];
    298e:	c5 c3 58 fe          	vaddsd xmm7,xmm7,xmm6
    2992:	c5 b3 59 b5 d0 fa ff 	vmulsd xmm6,xmm9,QWORD PTR [rbp-0x530]
    2999:	ff 
    299a:	c5 c3 58 f6          	vaddsd xmm6,xmm7,xmm6
    299e:	62 91 df 00 59 ff    	vmulsd xmm7,xmm20,xmm31
    29a4:	c5 cb 58 f7          	vaddsd xmm6,xmm6,xmm7
        dotp = 27.0*b[i + 0*ldb] + 11.0*b[i + 24*ldb] + 30.0*b[i + 72*ldb] + 30.0*b[i + 85*ldb] + 17.0*b[i + 88*ldb] + 28.0*b[i + 118*ldb];
    29a8:	62 b1 fd 48 28 fd    	vmovapd zmm7,zmm21
    29ae:	62 a1 ff 08 10 2c d6 	vmovsd xmm21,QWORD PTR [rsi+r10*8]
    29b5:	45 8d 14 06          	lea    r10d,[r14+rax*1]
    29b9:	c5 fb 11 bd 48 e5 ff 	vmovsd QWORD PTR [rbp-0x1ab8],xmm7
    29c0:	ff 
    29c1:	62 f1 bf 00 59 ff    	vmulsd xmm7,xmm24,xmm7
    29c7:	4d 63 d2             	movsxd r10,r10d
    29ca:	62 e1 ff 08 11 ad 10 	vmovsd QWORD PTR [rbp-0x14f0],xmm21
    29d1:	eb ff ff 
    29d4:	62 a1 87 08 59 ed    	vmulsd xmm21,xmm15,xmm21
        c[i + 24*ldc] = dotp;
    29da:	c4 a1 7b 11 34 e1    	vmovsd QWORD PTR [rcx+r12*8],xmm6
        dotp = 27.0*b[i + 0*ldb] + 11.0*b[i + 24*ldb] + 30.0*b[i + 72*ldb] + 30.0*b[i + 85*ldb] + 17.0*b[i + 88*ldb] + 28.0*b[i + 118*ldb];
    29e0:	62 b1 fd 48 28 f5    	vmovapd zmm6,zmm21
    29e6:	62 a1 ff 08 10 2c d6 	vmovsd xmm21,QWORD PTR [rsi+r10*8]
        c[i + 25*ldc] = dotp;
    29ed:	4c 63 d2             	movsxd r10,edx
        c[i + 26*ldc] = dotp;
    29f0:	44 01 c2             	add    edx,r8d
        dotp = 27.0*b[i + 0*ldb] + 11.0*b[i + 24*ldb] + 30.0*b[i + 72*ldb] + 30.0*b[i + 85*ldb] + 17.0*b[i + 88*ldb] + 28.0*b[i + 118*ldb];
    29f3:	c5 fb 11 b5 e8 da ff 	vmovsd QWORD PTR [rbp-0x2518],xmm6
    29fa:	ff 
    29fb:	c5 c3 58 f6          	vaddsd xmm6,xmm7,xmm6
    29ff:	c5 f3 59 bd d0 f5 ff 	vmulsd xmm7,xmm1,QWORD PTR [rbp-0xa30]
    2a06:	ff 
    2a07:	62 21 fd 48 28 fd    	vmovapd zmm31,zmm21
    2a0d:	62 e1 ff 08 10 ad d0 	vmovsd xmm21,QWORD PTR [rbp-0x430]
    2a14:	fb ff ff 
    2a17:	62 61 ff 08 11 bd 50 	vmovsd QWORD PTR [rbp-0xeb0],xmm31
    2a1e:	f1 ff ff 
    2a21:	c5 cb 58 ff          	vaddsd xmm7,xmm6,xmm7
    2a25:	62 91 f7 08 59 f7    	vmulsd xmm6,xmm1,xmm31
    2a2b:	c5 c3 58 fe          	vaddsd xmm7,xmm7,xmm6
    2a2f:	62 f1 d7 00 59 75 da 	vmulsd xmm6,xmm21,QWORD PTR [rbp-0x130]
    2a36:	c5 c3 58 f6          	vaddsd xmm6,xmm7,xmm6
    2a3a:	c5 ab 59 bd 90 f7 ff 	vmulsd xmm7,xmm10,QWORD PTR [rbp-0x870]
    2a41:	ff 
        dotp = 29.0*b[i + 37*ldb] + 19.0*b[i + 38*ldb] + 14.0*b[i + 46*ldb] + 25.0*b[i + 47*ldb] + 1.0*b[i + 49*ldb] + 8.0*b[i + 52*ldb] + 9.0*b[i + 58*ldb] + 20.0*b[i + 65*ldb] + 18.0*b[i + 115*ldb] + 5.0*b[i + 125*ldb];
    2a42:	44 8b b5 00 dc ff ff 	mov    r14d,DWORD PTR [rbp-0x2400]
        dotp = 27.0*b[i + 0*ldb] + 11.0*b[i + 24*ldb] + 30.0*b[i + 72*ldb] + 30.0*b[i + 85*ldb] + 17.0*b[i + 88*ldb] + 28.0*b[i + 118*ldb];
    2a49:	c5 cb 58 f7          	vaddsd xmm6,xmm6,xmm7
        c[i + 25*ldc] = dotp;
    2a4d:	c4 a1 7b 11 34 d1    	vmovsd QWORD PTR [rcx+r10*8],xmm6
        dotp = 29.0*b[i + 37*ldb] + 19.0*b[i + 38*ldb] + 14.0*b[i + 46*ldb] + 25.0*b[i + 47*ldb] + 1.0*b[i + 49*ldb] + 8.0*b[i + 52*ldb] + 9.0*b[i + 58*ldb] + 20.0*b[i + 65*ldb] + 18.0*b[i + 115*ldb] + 5.0*b[i + 125*ldb];
    2a53:	45 8d 14 06          	lea    r10d,[r14+rax*1]
    2a57:	44 8b b5 9c dc ff ff 	mov    r14d,DWORD PTR [rbp-0x2364]
    2a5e:	4d 63 d2             	movsxd r10,r10d
    2a61:	62 21 ff 08 10 3c d6 	vmovsd xmm31,QWORD PTR [rsi+r10*8]
    2a68:	45 8d 14 06          	lea    r10d,[r14+rax*1]
    2a6c:	44 8b b5 98 dc ff ff 	mov    r14d,DWORD PTR [rbp-0x2368]
    2a73:	4d 63 d2             	movsxd r10,r10d
    2a76:	62 a1 ff 08 10 2c d6 	vmovsd xmm21,QWORD PTR [rsi+r10*8]
    2a7d:	45 8d 14 06          	lea    r10d,[r14+rax*1]
    2a81:	44 8b b5 94 dc ff ff 	mov    r14d,DWORD PTR [rbp-0x236c]
    2a88:	62 61 ff 08 11 bd 10 	vmovsd QWORD PTR [rbp-0x9f0],xmm31
    2a8f:	f6 ff ff 
    2a92:	4d 63 d2             	movsxd r10,r10d
    2a95:	62 b1 fd 48 28 f5    	vmovapd zmm6,zmm21
    2a9b:	62 a1 ff 08 10 2c d6 	vmovsd xmm21,QWORD PTR [rsi+r10*8]
    2aa2:	45 8d 14 06          	lea    r10d,[r14+rax*1]
    2aa6:	44 8b b5 fc db ff ff 	mov    r14d,DWORD PTR [rbp-0x2404]
    2aad:	c5 fb 11 b5 f0 da ff 	vmovsd QWORD PTR [rbp-0x2510],xmm6
    2ab4:	ff 
    2ab5:	4d 63 d2             	movsxd r10,r10d
    2ab8:	62 b1 d7 00 59 f9    	vmulsd xmm7,xmm21,xmm17
    2abe:	62 21 ff 08 10 3c d6 	vmovsd xmm31,QWORD PTR [rsi+r10*8]
    2ac5:	45 8d 14 06          	lea    r10d,[r14+rax*1]
    2ac9:	44 8b b5 90 dc ff ff 	mov    r14d,DWORD PTR [rbp-0x2370]
    2ad0:	c5 93 59 f6          	vmulsd xmm6,xmm13,xmm6
    2ad4:	4d 63 d2             	movsxd r10,r10d
    2ad7:	62 61 ff 08 11 bd 50 	vmovsd QWORD PTR [rbp-0x9b0],xmm31
    2ade:	f6 ff ff 
    2ae1:	c5 fb 11 bd d0 dd ff 	vmovsd QWORD PTR [rbp-0x2230],xmm7
    2ae8:	ff 
    2ae9:	c4 a1 7b 10 3c d6    	vmovsd xmm7,QWORD PTR [rsi+r10*8]
    2aef:	45 8d 14 06          	lea    r10d,[r14+rax*1]
        dotp = 30.0*b[i + 17*ldb] + 28.0*b[i + 20*ldb] + 14.0*b[i + 59*ldb] + 13.0*b[i + 111*ldb] + 14.0*b[i + 122*ldb];
    2af3:	44 8b b5 8c dc ff ff 	mov    r14d,DWORD PTR [rbp-0x2374]
        dotp = 29.0*b[i + 37*ldb] + 19.0*b[i + 38*ldb] + 14.0*b[i + 46*ldb] + 25.0*b[i + 47*ldb] + 1.0*b[i + 49*ldb] + 8.0*b[i + 52*ldb] + 9.0*b[i + 58*ldb] + 20.0*b[i + 65*ldb] + 18.0*b[i + 115*ldb] + 5.0*b[i + 125*ldb];
    2afa:	4d 63 d2             	movsxd r10,r10d
    2afd:	c5 fb 11 bd 50 eb ff 	vmovsd QWORD PTR [rbp-0x14b0],xmm7
    2b04:	ff 
    2b05:	c4 a1 7b 10 3c d6    	vmovsd xmm7,QWORD PTR [rsi+r10*8]
        c[i + 26*ldc] = dotp;
    2b0b:	4c 63 d2             	movsxd r10,edx
        c[i + 27*ldc] = dotp;
    2b0e:	44 01 c2             	add    edx,r8d
        dotp = 29.0*b[i + 37*ldb] + 19.0*b[i + 38*ldb] + 14.0*b[i + 46*ldb] + 25.0*b[i + 47*ldb] + 1.0*b[i + 49*ldb] + 8.0*b[i + 52*ldb] + 9.0*b[i + 58*ldb] + 20.0*b[i + 65*ldb] + 18.0*b[i + 115*ldb] + 5.0*b[i + 125*ldb];
    2b11:	62 61 fd 48 28 ff    	vmovapd zmm31,zmm7
    2b17:	c5 8b 59 bd 10 f6 ff 	vmulsd xmm7,xmm14,QWORD PTR [rbp-0x9f0]
    2b1e:	ff 
    2b1f:	62 61 ff 08 11 bd 90 	vmovsd QWORD PTR [rbp-0x970],xmm31
    2b26:	f6 ff ff 
    2b29:	c5 cb 58 f7          	vaddsd xmm6,xmm6,xmm7
    2b2d:	c5 b3 59 bd 50 fb ff 	vmulsd xmm7,xmm9,QWORD PTR [rbp-0x4b0]
    2b34:	ff 
    2b35:	c5 cb 58 b5 d0 dd ff 	vaddsd xmm6,xmm6,QWORD PTR [rbp-0x2230]
    2b3c:	ff 
    2b3d:	c5 7b 10 8d 10 f8 ff 	vmovsd xmm9,QWORD PTR [rbp-0x7f0]
    2b44:	ff 
    2b45:	c5 cb 58 f7          	vaddsd xmm6,xmm6,xmm7
    2b49:	c4 c1 53 59 f9       	vmulsd xmm7,xmm5,xmm9
    2b4e:	c5 cb 58 b5 38 e5 ff 	vaddsd xmm6,xmm6,QWORD PTR [rbp-0x1ac8]
    2b55:	ff 
    2b56:	c5 cb 58 f7          	vaddsd xmm6,xmm6,xmm7
    2b5a:	62 f1 df 00 59 bd 50 	vmulsd xmm7,xmm20,QWORD PTR [rbp-0x9b0]
    2b61:	f6 ff ff 
    2b64:	c5 cb 58 ff          	vaddsd xmm7,xmm6,xmm7
    2b68:	62 f1 97 00 59 b5 50 	vmulsd xmm6,xmm29,QWORD PTR [rbp-0x14b0]
    2b6f:	eb ff ff 
    2b72:	c5 c3 58 fe          	vaddsd xmm7,xmm7,xmm6
    2b76:	62 91 ef 00 59 f7    	vmulsd xmm6,xmm18,xmm31
    2b7c:	c5 c3 58 f6          	vaddsd xmm6,xmm7,xmm6
    2b80:	62 f1 e7 00 59 bd 90 	vmulsd xmm7,xmm19,QWORD PTR [rbp-0x1670]
    2b87:	e9 ff ff 
    2b8a:	c5 cb 58 f7          	vaddsd xmm6,xmm6,xmm7
        c[i + 26*ldc] = dotp;
    2b8e:	c4 a1 7b 11 34 d1    	vmovsd QWORD PTR [rcx+r10*8],xmm6
        dotp = 30.0*b[i + 17*ldb] + 28.0*b[i + 20*ldb] + 14.0*b[i + 59*ldb] + 13.0*b[i + 111*ldb] + 14.0*b[i + 122*ldb];
    2b94:	45 8d 14 06          	lea    r10d,[r14+rax*1]
    2b98:	c5 ab 59 b5 90 fa ff 	vmulsd xmm6,xmm10,QWORD PTR [rbp-0x570]
    2b9f:	ff 
    2ba0:	4d 63 d2             	movsxd r10,r10d
    2ba3:	c4 a1 7b 10 3c d6    	vmovsd xmm7,QWORD PTR [rsi+r10*8]
        c[i + 27*ldc] = dotp;
    2ba9:	4c 63 d2             	movsxd r10,edx
        c[i + 28*ldc] = dotp;
    2bac:	44 01 c2             	add    edx,r8d
        dotp = 30.0*b[i + 17*ldb] + 28.0*b[i + 20*ldb] + 14.0*b[i + 59*ldb] + 13.0*b[i + 111*ldb] + 14.0*b[i + 122*ldb];
    2baf:	62 61 fd 48 28 ff    	vmovapd zmm31,zmm7
    2bb5:	c5 f3 59 bd 90 fc ff 	vmulsd xmm7,xmm1,QWORD PTR [rbp-0x370]
    2bbc:	ff 
        dotp = 9.0*b[i + 1*ldb] + 26.0*b[i + 3*ldb] + 4.0*b[i + 4*ldb] + 10.0*b[i + 6*ldb] + 23.0*b[i + 19*ldb] + 7.0*b[i + 23*ldb] + 13.0*b[i + 39*ldb] + 23.0*b[i + 88*ldb] + 13.0*b[i + 102*ldb];
    2bbd:	44 8b b5 3c dc ff ff 	mov    r14d,DWORD PTR [rbp-0x23c4]
        dotp = 30.0*b[i + 17*ldb] + 28.0*b[i + 20*ldb] + 14.0*b[i + 59*ldb] + 13.0*b[i + 111*ldb] + 14.0*b[i + 122*ldb];
    2bc4:	62 61 ff 08 11 bd 90 	vmovsd QWORD PTR [rbp-0x1470],xmm31
    2bcb:	eb ff ff 
    2bce:	c5 cb 58 ff          	vaddsd xmm7,xmm6,xmm7
    2bd2:	62 f1 f7 00 59 75 ba 	vmulsd xmm6,xmm17,QWORD PTR [rbp-0x230]
    2bd9:	c5 c3 58 fe          	vaddsd xmm7,xmm7,xmm6
    2bdd:	62 f1 8f 00 59 b5 d0 	vmulsd xmm6,xmm30,QWORD PTR [rbp-0x1130]
    2be4:	ee ff ff 
    2be7:	c5 c3 58 f6          	vaddsd xmm6,xmm7,xmm6
    2beb:	62 91 f7 00 59 ff    	vmulsd xmm7,xmm17,xmm31
    2bf1:	c5 cb 58 f7          	vaddsd xmm6,xmm6,xmm7
        dotp = 26.0*b[i + 35*ldb] + 14.0*b[i + 36*ldb] + 11.0*b[i + 46*ldb] + 26.0*b[i + 52*ldb] + 7.0*b[i + 81*ldb];
    2bf5:	62 f1 f7 00 59 bd d0 	vmulsd xmm7,xmm17,QWORD PTR [rbp-0x1230]
    2bfc:	ed ff ff 
        c[i + 27*ldc] = dotp;
    2bff:	c4 a1 7b 11 34 d1    	vmovsd QWORD PTR [rcx+r10*8],xmm6
        dotp = 26.0*b[i + 35*ldb] + 14.0*b[i + 36*ldb] + 11.0*b[i + 46*ldb] + 26.0*b[i + 52*ldb] + 7.0*b[i + 81*ldb];
    2c05:	c5 e3 59 b5 90 e8 ff 	vmulsd xmm6,xmm3,QWORD PTR [rbp-0x1770]
    2c0c:	ff 
        c[i + 28*ldc] = dotp;
    2c0d:	4c 63 d2             	movsxd r10,edx
        c[i + 29*ldc] = dotp;
    2c10:	44 01 c2             	add    edx,r8d
        dotp = 26.0*b[i + 35*ldb] + 14.0*b[i + 36*ldb] + 11.0*b[i + 46*ldb] + 26.0*b[i + 52*ldb] + 7.0*b[i + 81*ldb];
    2c13:	c5 fb 11 b5 10 de ff 	vmovsd QWORD PTR [rbp-0x21f0],xmm6
    2c1a:	ff 
    2c1b:	c5 c3 58 fe          	vaddsd xmm7,xmm7,xmm6
    2c1f:	62 d1 d7 00 59 f7    	vmulsd xmm6,xmm21,xmm15
    2c25:	c5 c3 58 fe          	vaddsd xmm7,xmm7,xmm6
    2c29:	c4 c1 63 59 f1       	vmulsd xmm6,xmm3,xmm9
    2c2e:	c5 c3 58 f6          	vaddsd xmm6,xmm7,xmm6
    2c32:	62 f1 a7 00 59 bd 10 	vmulsd xmm7,xmm27,QWORD PTR [rbp-0xdf0]
    2c39:	f2 ff ff 
    2c3c:	c5 cb 58 f7          	vaddsd xmm6,xmm6,xmm7
        c[i + 28*ldc] = dotp;
    2c40:	c4 a1 7b 11 34 d1    	vmovsd QWORD PTR [rcx+r10*8],xmm6
        dotp = 9.0*b[i + 1*ldb] + 26.0*b[i + 3*ldb] + 4.0*b[i + 4*ldb] + 10.0*b[i + 6*ldb] + 23.0*b[i + 19*ldb] + 7.0*b[i + 23*ldb] + 13.0*b[i + 39*ldb] + 23.0*b[i + 88*ldb] + 13.0*b[i + 102*ldb];
    2c46:	45 8d 14 06          	lea    r10d,[r14+rax*1]
    2c4a:	44 8b b5 68 db ff ff 	mov    r14d,DWORD PTR [rbp-0x2498]
    2c51:	4d 63 d2             	movsxd r10,r10d
    2c54:	c4 21 7b 10 0c d6    	vmovsd xmm9,QWORD PTR [rsi+r10*8]
    2c5a:	45 8d 14 06          	lea    r10d,[r14+rax*1]
    2c5e:	44 8b b5 54 d4 ff ff 	mov    r14d,DWORD PTR [rbp-0x2bac]
    2c65:	4d 63 d2             	movsxd r10,r10d
    2c68:	c4 a1 7b 10 34 d6    	vmovsd xmm6,QWORD PTR [rsi+r10*8]
    2c6e:	45 8d 14 06          	lea    r10d,[r14+rax*1]
    2c72:	c5 7b 11 8d 50 de ff 	vmovsd QWORD PTR [rbp-0x21b0],xmm9
    2c79:	ff 
    2c7a:	c4 41 63 59 c9       	vmulsd xmm9,xmm3,xmm9
    2c7f:	4d 63 d2             	movsxd r10,r10d
    2c82:	44 8b b5 88 dc ff ff 	mov    r14d,DWORD PTR [rbp-0x2378]
    2c89:	c5 fb 11 b5 90 de ff 	vmovsd QWORD PTR [rbp-0x2170],xmm6
    2c90:	ff 
    2c91:	62 f1 c7 00 59 fe    	vmulsd xmm7,xmm23,xmm6
    2c97:	c4 a1 7b 10 34 d6    	vmovsd xmm6,QWORD PTR [rsi+r10*8]
    2c9d:	45 8d 14 06          	lea    r10d,[r14+rax*1]
    2ca1:	c5 fb 11 b5 50 e5 ff 	vmovsd QWORD PTR [rbp-0x1ab0],xmm6
    2ca8:	ff 
    2ca9:	4d 63 e2             	movsxd r12,r10d
        dotp = 4.0*b[i + 17*ldb] + 5.0*b[i + 28*ldb] + 22.0*b[i + 37*ldb] + 16.0*b[i + 48*ldb] + 27.0*b[i + 54*ldb] + 12.0*b[i + 73*ldb] + 13.0*b[i + 92*ldb] + 9.0*b[i + 126*ldb];
    2cac:	45 01 ea             	add    r10d,r13d
        dotp = 9.0*b[i + 1*ldb] + 26.0*b[i + 3*ldb] + 4.0*b[i + 4*ldb] + 10.0*b[i + 6*ldb] + 23.0*b[i + 19*ldb] + 7.0*b[i + 23*ldb] + 13.0*b[i + 39*ldb] + 23.0*b[i + 88*ldb] + 13.0*b[i + 102*ldb];
    2caf:	62 f1 df 00 59 b5 90 	vmulsd xmm6,xmm20,QWORD PTR [rbp-0x470]
    2cb6:	fb ff ff 
    2cb9:	62 21 ff 08 10 3c e6 	vmovsd xmm31,QWORD PTR [rsi+r12*8]
        c[i + 29*ldc] = dotp;
    2cc0:	4c 63 e2             	movsxd r12,edx
        c[i + 30*ldc] = dotp;
    2cc3:	44 01 c2             	add    edx,r8d
        dotp = 4.0*b[i + 17*ldb] + 5.0*b[i + 28*ldb] + 22.0*b[i + 37*ldb] + 16.0*b[i + 48*ldb] + 27.0*b[i + 54*ldb] + 12.0*b[i + 73*ldb] + 13.0*b[i + 92*ldb] + 9.0*b[i + 126*ldb];
    2cc6:	4d 63 d2             	movsxd r10,r10d
        dotp = 9.0*b[i + 1*ldb] + 26.0*b[i + 3*ldb] + 4.0*b[i + 4*ldb] + 10.0*b[i + 6*ldb] + 23.0*b[i + 19*ldb] + 7.0*b[i + 23*ldb] + 13.0*b[i + 39*ldb] + 23.0*b[i + 88*ldb] + 13.0*b[i + 102*ldb];
    2cc9:	62 61 ff 08 11 bd 90 	vmovsd QWORD PTR [rbp-0x1a70],xmm31
    2cd0:	e5 ff ff 
    2cd3:	c5 b3 58 f6          	vaddsd xmm6,xmm9,xmm6
    2cd7:	62 71 9f 00 59 8d 90 	vmulsd xmm9,xmm28,QWORD PTR [rbp-0xc70]
    2cde:	f3 ff ff 
    2ce1:	c4 c1 4b 58 f1       	vaddsd xmm6,xmm6,xmm9
    2ce6:	c5 7b 59 8d 50 e5 ff 	vmulsd xmm9,xmm0,QWORD PTR [rbp-0x1ab0]
    2ced:	ff 
    2cee:	c5 cb 58 f7          	vaddsd xmm6,xmm6,xmm7
    2cf2:	c4 c1 4b 58 f1       	vaddsd xmm6,xmm6,xmm9
    2cf7:	62 71 a7 00 59 8d 50 	vmulsd xmm9,xmm27,QWORD PTR [rbp-0x6b0]
    2cfe:	f9 ff ff 
    2d01:	c4 41 4b 58 c9       	vaddsd xmm9,xmm6,xmm9
    2d06:	62 91 8f 00 59 f7    	vmulsd xmm6,xmm30,xmm31
    2d0c:	c5 33 58 ce          	vaddsd xmm9,xmm9,xmm6
    2d10:	c5 fb 59 b5 d0 fb ff 	vmulsd xmm6,xmm0,QWORD PTR [rbp-0x430]
    2d17:	ff 
    2d18:	c5 b3 58 f6          	vaddsd xmm6,xmm9,xmm6
    2d1c:	62 71 8f 00 59 8d 90 	vmulsd xmm9,xmm30,QWORD PTR [rbp-0x1570]
    2d23:	ea ff ff 
    2d26:	c4 c1 4b 58 f1       	vaddsd xmm6,xmm6,xmm9
        dotp = 10.0*b[i + 28*ldb] + 4.0*b[i + 51*ldb] + 29.0*b[i + 56*ldb] + 27.0*b[i + 104*ldb] + 9.0*b[i + 107*ldb] + 3.0*b[i + 121*ldb] + 18.0*b[i + 127*ldb];
    2d2b:	62 71 c7 00 59 8d d0 	vmulsd xmm9,xmm23,QWORD PTR [rbp-0x1830]
    2d32:	e7 ff ff 
        c[i + 29*ldc] = dotp;
    2d35:	c4 a1 7b 11 34 e1    	vmovsd QWORD PTR [rcx+r12*8],xmm6
        dotp = 10.0*b[i + 28*ldb] + 4.0*b[i + 51*ldb] + 29.0*b[i + 56*ldb] + 27.0*b[i + 104*ldb] + 9.0*b[i + 107*ldb] + 3.0*b[i + 121*ldb] + 18.0*b[i + 127*ldb];
    2d3b:	62 f1 9f 00 59 b5 d0 	vmulsd xmm6,xmm28,QWORD PTR [rbp-0x730]
    2d42:	f8 ff ff 
        c[i + 30*ldc] = dotp;
    2d45:	4c 63 e2             	movsxd r12,edx
        c[i + 31*ldc] = dotp;
    2d48:	44 01 c2             	add    edx,r8d
        dotp = 10.0*b[i + 28*ldb] + 4.0*b[i + 51*ldb] + 29.0*b[i + 56*ldb] + 27.0*b[i + 104*ldb] + 9.0*b[i + 107*ldb] + 3.0*b[i + 121*ldb] + 18.0*b[i + 127*ldb];
    2d4b:	c4 c1 4b 58 f1       	vaddsd xmm6,xmm6,xmm9
    2d50:	c5 cb 58 b5 90 e4 ff 	vaddsd xmm6,xmm6,QWORD PTR [rbp-0x1b70]
    2d57:	ff 
    2d58:	62 71 bf 00 59 8d 50 	vmulsd xmm9,xmm24,QWORD PTR [rbp-0x16b0]
    2d5f:	e9 ff ff 
        dotp = 4.0*b[i + 17*ldb] + 5.0*b[i + 28*ldb] + 22.0*b[i + 37*ldb] + 16.0*b[i + 48*ldb] + 27.0*b[i + 54*ldb] + 12.0*b[i + 73*ldb] + 13.0*b[i + 92*ldb] + 9.0*b[i + 126*ldb];
    2d62:	62 61 ff 08 10 bd 10 	vmovsd xmm31,QWORD PTR [rbp-0x9f0]
    2d69:	f6 ff ff 
        dotp = 10.0*b[i + 28*ldb] + 4.0*b[i + 51*ldb] + 29.0*b[i + 56*ldb] + 27.0*b[i + 104*ldb] + 9.0*b[i + 107*ldb] + 3.0*b[i + 121*ldb] + 18.0*b[i + 127*ldb];
    2d6c:	c4 41 4b 58 c9       	vaddsd xmm9,xmm6,xmm9
    2d71:	62 f1 df 00 59 b5 10 	vmulsd xmm6,xmm20,QWORD PTR [rbp-0x4f0]
    2d78:	fb ff ff 
    2d7b:	c5 33 58 ce          	vaddsd xmm9,xmm9,xmm6
    2d7f:	c5 fb 10 b5 50 dd ff 	vmovsd xmm6,QWORD PTR [rbp-0x22b0]
    2d86:	ff 
    2d87:	62 b1 cf 08 59 f6    	vmulsd xmm6,xmm6,xmm22
        dotp = 4.0*b[i + 17*ldb] + 5.0*b[i + 28*ldb] + 22.0*b[i + 37*ldb] + 16.0*b[i + 48*ldb] + 27.0*b[i + 54*ldb] + 12.0*b[i + 73*ldb] + 13.0*b[i + 92*ldb] + 9.0*b[i + 126*ldb];
    2d8d:	62 e1 e7 00 59 b5 d0 	vmulsd xmm22,xmm19,QWORD PTR [rbp-0x1830]
    2d94:	e7 ff ff 
        dotp = 10.0*b[i + 28*ldb] + 4.0*b[i + 51*ldb] + 29.0*b[i + 56*ldb] + 27.0*b[i + 104*ldb] + 9.0*b[i + 107*ldb] + 3.0*b[i + 121*ldb] + 18.0*b[i + 127*ldb];
    2d97:	c5 b3 58 f6          	vaddsd xmm6,xmm9,xmm6
    2d9b:	62 71 ef 00 59 8d 10 	vmulsd xmm9,xmm18,QWORD PTR [rbp-0x10f0]
    2da2:	ef ff ff 
    2da5:	c4 c1 4b 58 f1       	vaddsd xmm6,xmm6,xmm9
        dotp = 4.0*b[i + 17*ldb] + 5.0*b[i + 28*ldb] + 22.0*b[i + 37*ldb] + 16.0*b[i + 48*ldb] + 27.0*b[i + 54*ldb] + 12.0*b[i + 73*ldb] + 13.0*b[i + 92*ldb] + 9.0*b[i + 126*ldb];
    2daa:	c4 21 3b 59 0c d6    	vmulsd xmm9,xmm8,QWORD PTR [rsi+r10*8]
        c[i + 30*ldc] = dotp;
    2db0:	c4 a1 7b 11 34 e1    	vmovsd QWORD PTR [rcx+r12*8],xmm6
        dotp = 4.0*b[i + 17*ldb] + 5.0*b[i + 28*ldb] + 22.0*b[i + 37*ldb] + 16.0*b[i + 48*ldb] + 27.0*b[i + 54*ldb] + 12.0*b[i + 73*ldb] + 13.0*b[i + 92*ldb] + 9.0*b[i + 126*ldb];
    2db6:	62 f1 9f 00 59 75 92 	vmulsd xmm6,xmm28,QWORD PTR [rbp-0x370]
        c[i + 31*ldc] = dotp;
    2dbd:	4c 63 e2             	movsxd r12,edx
        c[i + 32*ldc] = dotp;
    2dc0:	44 01 c2             	add    edx,r8d
    2dc3:	4c 63 d2             	movsxd r10,edx
        c[i + 33*ldc] = dotp;
    2dc6:	44 01 c2             	add    edx,r8d
        dotp = 4.0*b[i + 17*ldb] + 5.0*b[i + 28*ldb] + 22.0*b[i + 37*ldb] + 16.0*b[i + 48*ldb] + 27.0*b[i + 54*ldb] + 12.0*b[i + 73*ldb] + 13.0*b[i + 92*ldb] + 9.0*b[i + 126*ldb];
    2dc9:	62 f1 cf 00 58 f6    	vaddsd xmm6,xmm22,xmm6
    2dcf:	62 e1 87 00 59 75 d2 	vmulsd xmm22,xmm31,QWORD PTR [rbp-0x170]
    2dd6:	62 b1 cf 08 58 f6    	vaddsd xmm6,xmm6,xmm22
    2ddc:	62 e1 ff 08 10 b5 d0 	vmovsd xmm22,QWORD PTR [rbp-0x830]
    2de3:	f7 ff ff 
    2de6:	c5 33 58 ce          	vaddsd xmm9,xmm9,xmm6
    2dea:	62 f1 bf 00 59 b5 90 	vmulsd xmm6,xmm24,QWORD PTR [rbp-0x670]
    2df1:	f9 ff ff 
    2df4:	c5 33 58 ce          	vaddsd xmm9,xmm9,xmm6
    2df8:	c5 a3 59 b5 50 f0 ff 	vmulsd xmm6,xmm11,QWORD PTR [rbp-0xfb0]
    2dff:	ff 
    2e00:	c5 b3 58 f6          	vaddsd xmm6,xmm9,xmm6
    2e04:	62 71 8f 00 59 8d 10 	vmulsd xmm9,xmm30,QWORD PTR [rbp-0x17f0]
    2e0b:	e8 ff ff 
    2e0e:	c4 41 4b 58 c9       	vaddsd xmm9,xmm6,xmm9
    2e13:	62 b1 df 00 59 f6    	vmulsd xmm6,xmm20,xmm22
    2e19:	c5 33 58 ce          	vaddsd xmm9,xmm9,xmm6
        dotp = 29.0*b[i + 23*ldb] + 9.0*b[i + 106*ldb] + 24.0*b[i + 126*ldb] + 22.0*b[i + 127*ldb];
    2e1d:	c5 8b 59 b5 50 f9 ff 	vmulsd xmm6,xmm14,QWORD PTR [rbp-0x6b0]
    2e24:	ff 
        c[i + 31*ldc] = dotp;
    2e25:	c4 21 7b 11 0c e1    	vmovsd QWORD PTR [rcx+r12*8],xmm9
        dotp = 29.0*b[i + 23*ldb] + 9.0*b[i + 106*ldb] + 24.0*b[i + 126*ldb] + 22.0*b[i + 127*ldb];
    2e2b:	62 71 df 00 59 8d 10 	vmulsd xmm9,xmm20,QWORD PTR [rbp-0xcf0]
    2e32:	f3 ff ff 
    2e35:	c5 33 58 ce          	vaddsd xmm9,xmm9,xmm6
    2e39:	62 b1 b7 00 59 f6    	vmulsd xmm6,xmm25,xmm22
        dotp = 31.0*b[i + 6*ldb] + 13.0*b[i + 11*ldb] + 2.0*b[i + 13*ldb] + 21.0*b[i + 26*ldb] + 7.0*b[i + 31*ldb] + 23.0*b[i + 41*ldb] + 2.0*b[i + 59*ldb] + 14.0*b[i + 69*ldb] + 22.0*b[i + 72*ldb] + 11.0*b[i + 84*ldb] + 26.0*b[i + 86*ldb] + 15.0*b[i + 117*ldb] + 17.0*b[i + 122*ldb];
    2e3f:	62 e1 e7 08 59 b5 50 	vmulsd xmm22,xmm3,QWORD PTR [rbp-0xab0]
    2e46:	f5 ff ff 
        dotp = 29.0*b[i + 23*ldb] + 9.0*b[i + 106*ldb] + 24.0*b[i + 126*ldb] + 22.0*b[i + 127*ldb];
    2e49:	c5 b3 58 f6          	vaddsd xmm6,xmm9,xmm6
    2e4d:	c5 7b 10 8d 90 fe ff 	vmovsd xmm9,QWORD PTR [rbp-0x170]
    2e54:	ff 
    2e55:	c5 33 59 8d 10 ef ff 	vmulsd xmm9,xmm9,QWORD PTR [rbp-0x10f0]
    2e5c:	ff 
        dotp = 31.0*b[i + 6*ldb] + 13.0*b[i + 11*ldb] + 2.0*b[i + 13*ldb] + 21.0*b[i + 26*ldb] + 7.0*b[i + 31*ldb] + 23.0*b[i + 41*ldb] + 2.0*b[i + 59*ldb] + 14.0*b[i + 69*ldb] + 22.0*b[i + 72*ldb] + 11.0*b[i + 84*ldb] + 26.0*b[i + 86*ldb] + 15.0*b[i + 117*ldb] + 17.0*b[i + 122*ldb];
    2e5d:	62 e1 ff 08 11 b5 d0 	vmovsd QWORD PTR [rbp-0x2130],xmm22
    2e64:	de ff ff 
    2e67:	62 e1 ff 08 10 75 f2 	vmovsd xmm22,QWORD PTR [rbp-0x70]
        dotp = 29.0*b[i + 23*ldb] + 9.0*b[i + 106*ldb] + 24.0*b[i + 126*ldb] + 22.0*b[i + 127*ldb];
    2e6e:	c4 c1 4b 58 f1       	vaddsd xmm6,xmm6,xmm9
        dotp = 31.0*b[i + 6*ldb] + 13.0*b[i + 11*ldb] + 2.0*b[i + 13*ldb] + 21.0*b[i + 26*ldb] + 7.0*b[i + 31*ldb] + 23.0*b[i + 41*ldb] + 2.0*b[i + 59*ldb] + 14.0*b[i + 69*ldb] + 22.0*b[i + 72*ldb] + 11.0*b[i + 84*ldb] + 26.0*b[i + 86*ldb] + 15.0*b[i + 117*ldb] + 17.0*b[i + 122*ldb];
    2e73:	c5 7b 10 8d 90 de ff 	vmovsd xmm9,QWORD PTR [rbp-0x2170]
    2e7a:	ff 
    2e7b:	62 31 b7 08 59 ce    	vmulsd xmm9,xmm9,xmm22
        c[i + 32*ldc] = dotp;
    2e81:	c4 a1 7b 11 34 d1    	vmovsd QWORD PTR [rcx+r10*8],xmm6
        dotp = 31.0*b[i + 6*ldb] + 13.0*b[i + 11*ldb] + 2.0*b[i + 13*ldb] + 21.0*b[i + 26*ldb] + 7.0*b[i + 31*ldb] + 23.0*b[i + 41*ldb] + 2.0*b[i + 59*ldb] + 14.0*b[i + 69*ldb] + 22.0*b[i + 72*ldb] + 11.0*b[i + 84*ldb] + 26.0*b[i + 86*ldb] + 15.0*b[i + 117*ldb] + 17.0*b[i + 122*ldb];
    2e87:	62 f1 8f 00 59 b5 10 	vmulsd xmm6,xmm30,QWORD PTR [rbp-0xef0]
    2e8e:	f1 ff ff 
    2e91:	44 8d 14 07          	lea    r10d,[rdi+rax*1]
    2e95:	4d 63 d2             	movsxd r10,r10d
    2e98:	62 21 ff 08 10 3c d6 	vmovsd xmm31,QWORD PTR [rsi+r10*8]
        c[i + 33*ldc] = dotp;
    2e9f:	4c 63 d2             	movsxd r10,edx
        c[i + 34*ldc] = dotp;
    2ea2:	44 01 c2             	add    edx,r8d
        dotp = 31.0*b[i + 6*ldb] + 13.0*b[i + 11*ldb] + 2.0*b[i + 13*ldb] + 21.0*b[i + 26*ldb] + 7.0*b[i + 31*ldb] + 23.0*b[i + 41*ldb] + 2.0*b[i + 59*ldb] + 14.0*b[i + 69*ldb] + 22.0*b[i + 72*ldb] + 11.0*b[i + 84*ldb] + 26.0*b[i + 86*ldb] + 15.0*b[i + 117*ldb] + 17.0*b[i + 122*ldb];
    2ea5:	62 61 ff 08 11 bd 90 	vmovsd QWORD PTR [rbp-0xe70],xmm31
    2eac:	f1 ff ff 
    2eaf:	c4 41 4b 58 c9       	vaddsd xmm9,xmm6,xmm9
    2eb4:	c5 fb 10 b5 10 fd ff 	vmovsd xmm6,QWORD PTR [rbp-0x2f0]
    2ebb:	ff 
    2ebc:	c5 cb 58 f6          	vaddsd xmm6,xmm6,xmm6
    2ec0:	c5 33 58 ce          	vaddsd xmm9,xmm9,xmm6
    2ec4:	c5 db 59 b5 50 ee ff 	vmulsd xmm6,xmm4,QWORD PTR [rbp-0x11b0]
    2ecb:	ff 
    2ecc:	c5 b3 58 f6          	vaddsd xmm6,xmm9,xmm6
    2ed0:	62 71 a7 00 59 8d 50 	vmulsd xmm9,xmm27,QWORD PTR [rbp-0xbb0]
    2ed7:	f4 ff ff 
    2eda:	c4 c1 4b 58 f1       	vaddsd xmm6,xmm6,xmm9
    2edf:	62 11 ff 08 59 cf    	vmulsd xmm9,xmm0,xmm31
    2ee5:	62 61 ff 08 10 7d ba 	vmovsd xmm31,QWORD PTR [rbp-0x230]
    2eec:	c4 41 4b 58 c9       	vaddsd xmm9,xmm6,xmm9
    2ef1:	62 91 87 00 58 f7    	vaddsd xmm6,xmm31,xmm31
    2ef7:	c5 33 58 ce          	vaddsd xmm9,xmm9,xmm6
    2efb:	62 f1 f7 00 59 b5 10 	vmulsd xmm6,xmm17,QWORD PTR [rbp-0x5f0]
    2f02:	fa ff ff 
    2f05:	c5 b3 58 f6          	vaddsd xmm6,xmm9,xmm6
    2f09:	c5 7b 10 8d 90 fe ff 	vmovsd xmm9,QWORD PTR [rbp-0x170]
    2f10:	ff 
    2f11:	c5 33 59 8d d0 f5 ff 	vmulsd xmm9,xmm9,QWORD PTR [rbp-0xa30]
    2f18:	ff 
    2f19:	62 61 ff 08 10 bd 90 	vmovsd xmm31,QWORD PTR [rbp-0x1470]
    2f20:	eb ff ff 
        dotp = 10.0*b[i + 6*ldb] + 27.0*b[i + 21*ldb] + 7.0*b[i + 57*ldb] + 30.0*b[i + 78*ldb] + 19.0*b[i + 93*ldb];
    2f23:	44 8b b5 84 dc ff ff 	mov    r14d,DWORD PTR [rbp-0x237c]
        dotp = 31.0*b[i + 6*ldb] + 13.0*b[i + 11*ldb] + 2.0*b[i + 13*ldb] + 21.0*b[i + 26*ldb] + 7.0*b[i + 31*ldb] + 23.0*b[i + 41*ldb] + 2.0*b[i + 59*ldb] + 14.0*b[i + 69*ldb] + 22.0*b[i + 72*ldb] + 11.0*b[i + 84*ldb] + 26.0*b[i + 86*ldb] + 15.0*b[i + 117*ldb] + 17.0*b[i + 122*ldb];
    2f2a:	c4 c1 4b 58 f1       	vaddsd xmm6,xmm6,xmm9
    2f2f:	62 71 87 00 59 4d da 	vmulsd xmm9,xmm31,QWORD PTR [rbp-0x130]
    2f36:	c5 cb 58 b5 10 f7 ff 	vaddsd xmm6,xmm6,QWORD PTR [rbp-0x8f0]
    2f3d:	ff 
    2f3e:	c5 cb 58 b5 d0 de ff 	vaddsd xmm6,xmm6,QWORD PTR [rbp-0x2130]
    2f45:	ff 
    2f46:	c5 cb 58 b5 d0 e2 ff 	vaddsd xmm6,xmm6,QWORD PTR [rbp-0x1d30]
    2f4d:	ff 
        dotp = 10.0*b[i + 6*ldb] + 27.0*b[i + 21*ldb] + 7.0*b[i + 57*ldb] + 30.0*b[i + 78*ldb] + 19.0*b[i + 93*ldb];
    2f4e:	62 61 bf 00 59 bd 50 	vmulsd xmm31,xmm24,QWORD PTR [rbp-0xdb0]
    2f55:	f2 ff ff 
        dotp = 31.0*b[i + 6*ldb] + 13.0*b[i + 11*ldb] + 2.0*b[i + 13*ldb] + 21.0*b[i + 26*ldb] + 7.0*b[i + 31*ldb] + 23.0*b[i + 41*ldb] + 2.0*b[i + 59*ldb] + 14.0*b[i + 69*ldb] + 22.0*b[i + 72*ldb] + 11.0*b[i + 84*ldb] + 26.0*b[i + 86*ldb] + 15.0*b[i + 117*ldb] + 17.0*b[i + 122*ldb];
    2f58:	c4 c1 4b 58 f1       	vaddsd xmm6,xmm6,xmm9
        dotp = 10.0*b[i + 6*ldb] + 27.0*b[i + 21*ldb] + 7.0*b[i + 57*ldb] + 30.0*b[i + 78*ldb] + 19.0*b[i + 93*ldb];
    2f5d:	c5 7b 10 8d d0 fc ff 	vmovsd xmm9,QWORD PTR [rbp-0x330]
    2f64:	ff 
    2f65:	62 61 ff 08 11 bd 10 	vmovsd QWORD PTR [rbp-0x20f0],xmm31
    2f6c:	df ff ff 
    2f6f:	c5 c3 58 bd 10 df ff 	vaddsd xmm7,xmm7,QWORD PTR [rbp-0x20f0]
    2f76:	ff 
        c[i + 33*ldc] = dotp;
    2f77:	c4 a1 7b 11 34 d1    	vmovsd QWORD PTR [rcx+r10*8],xmm6
        dotp = 10.0*b[i + 6*ldb] + 27.0*b[i + 21*ldb] + 7.0*b[i + 57*ldb] + 30.0*b[i + 78*ldb] + 19.0*b[i + 93*ldb];
    2f7d:	62 d1 a7 00 59 f1    	vmulsd xmm6,xmm27,xmm9
    2f83:	45 8d 14 06          	lea    r10d,[r14+rax*1]
        dotp = 9.0*b[i + 7*ldb] + 19.0*b[i + 20*ldb] + 18.0*b[i + 32*ldb] + 20.0*b[i + 72*ldb] + 18.0*b[i + 87*ldb] + 27.0*b[i + 88*ldb] + 31.0*b[i + 113*ldb];
    2f87:	44 8b b5 24 dc ff ff 	mov    r14d,DWORD PTR [rbp-0x23dc]
        dotp = 10.0*b[i + 6*ldb] + 27.0*b[i + 21*ldb] + 7.0*b[i + 57*ldb] + 30.0*b[i + 78*ldb] + 19.0*b[i + 93*ldb];
    2f8e:	4d 63 d2             	movsxd r10,r10d
    2f91:	62 21 ff 08 10 3c d6 	vmovsd xmm31,QWORD PTR [rsi+r10*8]
        c[i + 34*ldc] = dotp;
    2f98:	4c 63 d2             	movsxd r10,edx
        c[i + 35*ldc] = dotp;
    2f9b:	44 01 c2             	add    edx,r8d
        dotp = 10.0*b[i + 6*ldb] + 27.0*b[i + 21*ldb] + 7.0*b[i + 57*ldb] + 30.0*b[i + 78*ldb] + 19.0*b[i + 93*ldb];
    2f9e:	62 61 ff 08 11 bd 50 	vmovsd QWORD PTR [rbp-0x20b0],xmm31
    2fa5:	df ff ff 
    2fa8:	c5 fb 11 b5 f8 da ff 	vmovsd QWORD PTR [rbp-0x2508],xmm6
    2faf:	ff 
    2fb0:	c5 c3 58 fe          	vaddsd xmm7,xmm7,xmm6
    2fb4:	c5 f3 59 b5 d0 f3 ff 	vmulsd xmm6,xmm1,QWORD PTR [rbp-0xc30]
    2fbb:	ff 
    2fbc:	c5 c3 58 fe          	vaddsd xmm7,xmm7,xmm6
    2fc0:	62 91 97 08 59 f7    	vmulsd xmm6,xmm13,xmm31
        dotp = 9.0*b[i + 7*ldb] + 19.0*b[i + 20*ldb] + 18.0*b[i + 32*ldb] + 20.0*b[i + 72*ldb] + 18.0*b[i + 87*ldb] + 27.0*b[i + 88*ldb] + 31.0*b[i + 113*ldb];
    2fc6:	62 61 97 08 59 bd 90 	vmulsd xmm31,xmm13,QWORD PTR [rbp-0x570]
    2fcd:	fa ff ff 
        dotp = 10.0*b[i + 6*ldb] + 27.0*b[i + 21*ldb] + 7.0*b[i + 57*ldb] + 30.0*b[i + 78*ldb] + 19.0*b[i + 93*ldb];
    2fd0:	c5 c3 58 fe          	vaddsd xmm7,xmm7,xmm6
        dotp = 17.0*b[i + 20*ldb] + 5.0*b[i + 56*ldb] + 1.0*b[i + 69*ldb] + 12.0*b[i + 88*ldb] + 8.0*b[i + 116*ldb];
    2fd4:	62 f1 e7 00 59 b5 50 	vmulsd xmm6,xmm19,QWORD PTR [rbp-0x1bb0]
    2fdb:	e4 ff ff 
        dotp = 9.0*b[i + 7*ldb] + 19.0*b[i + 20*ldb] + 18.0*b[i + 32*ldb] + 20.0*b[i + 72*ldb] + 18.0*b[i + 87*ldb] + 27.0*b[i + 88*ldb] + 31.0*b[i + 113*ldb];
    2fde:	62 61 ff 08 11 bd 90 	vmovsd QWORD PTR [rbp-0x2070],xmm31
    2fe5:	df ff ff 
        c[i + 34*ldc] = dotp;
    2fe8:	c4 a1 7b 11 3c d1    	vmovsd QWORD PTR [rcx+r10*8],xmm7
        c[i + 35*ldc] = dotp;
    2fee:	4c 63 d2             	movsxd r10,edx
        c[i + 36*ldc] = dotp;
    2ff1:	44 01 c2             	add    edx,r8d
        dotp = 17.0*b[i + 20*ldb] + 5.0*b[i + 56*ldb] + 1.0*b[i + 69*ldb] + 12.0*b[i + 88*ldb] + 8.0*b[i + 116*ldb];
    2ff4:	c5 fb 10 bd 90 fa ff 	vmovsd xmm7,QWORD PTR [rbp-0x570]
    2ffb:	ff 
    2ffc:	c5 c3 59 bd d0 fe ff 	vmulsd xmm7,xmm7,QWORD PTR [rbp-0x130]
    3003:	ff 
    3004:	c5 cb 58 f7          	vaddsd xmm6,xmm6,xmm7
    3008:	c5 cb 58 bd 10 fa ff 	vaddsd xmm7,xmm6,QWORD PTR [rbp-0x5f0]
    300f:	ff 
    3010:	c5 a3 59 b5 d0 fb ff 	vmulsd xmm6,xmm11,QWORD PTR [rbp-0x430]
    3017:	ff 
    3018:	c5 c3 58 f6          	vaddsd xmm6,xmm7,xmm6
    301c:	c5 d3 59 bd d0 ea ff 	vmulsd xmm7,xmm5,QWORD PTR [rbp-0x1530]
    3023:	ff 
    3024:	c5 cb 58 f7          	vaddsd xmm6,xmm6,xmm7
        c[i + 35*ldc] = dotp;
    3028:	c4 a1 7b 11 34 d1    	vmovsd QWORD PTR [rcx+r10*8],xmm6
        dotp = 9.0*b[i + 7*ldb] + 19.0*b[i + 20*ldb] + 18.0*b[i + 32*ldb] + 20.0*b[i + 72*ldb] + 18.0*b[i + 87*ldb] + 27.0*b[i + 88*ldb] + 31.0*b[i + 113*ldb];
    302e:	45 8d 14 01          	lea    r10d,[r9+rax*1]
    3032:	4d 63 d2             	movsxd r10,r10d
    3035:	c4 a1 7b 10 3c d6    	vmovsd xmm7,QWORD PTR [rsi+r10*8]
    303b:	45 8d 14 06          	lea    r10d,[r14+rax*1]
    303f:	44 8b b5 80 dc ff ff 	mov    r14d,DWORD PTR [rbp-0x2380]
    3046:	4d 63 d2             	movsxd r10,r10d
    3049:	62 21 ff 08 10 3c d6 	vmovsd xmm31,QWORD PTR [rsi+r10*8]
    3050:	45 8d 14 06          	lea    r10d,[r14+rax*1]
    3054:	4d 63 d2             	movsxd r10,r10d
    3057:	c4 a1 7b 10 34 d6    	vmovsd xmm6,QWORD PTR [rsi+r10*8]
        c[i + 36*ldc] = dotp;
    305d:	4c 63 d2             	movsxd r10,edx
        c[i + 37*ldc] = dotp;
    3060:	44 01 c2             	add    edx,r8d
        dotp = 9.0*b[i + 7*ldb] + 19.0*b[i + 20*ldb] + 18.0*b[i + 32*ldb] + 20.0*b[i + 72*ldb] + 18.0*b[i + 87*ldb] + 27.0*b[i + 88*ldb] + 31.0*b[i + 113*ldb];
    3063:	c5 fb 11 b5 10 e6 ff 	vmovsd QWORD PTR [rbp-0x19f0],xmm6
    306a:	ff 
    306b:	62 f1 df 00 59 f7    	vmulsd xmm6,xmm20,xmm7
        dotp = 12.0*b[i + 14*ldb] + 20.0*b[i + 55*ldb] + 28.0*b[i + 58*ldb] + 9.0*b[i + 60*ldb] + 24.0*b[i + 67*ldb] + 8.0*b[i + 83*ldb] + 21.0*b[i + 106*ldb] + 4.0*b[i + 115*ldb];
    3071:	44 8b b5 7c dc ff ff 	mov    r14d,DWORD PTR [rbp-0x2384]
        dotp = 9.0*b[i + 7*ldb] + 19.0*b[i + 20*ldb] + 18.0*b[i + 32*ldb] + 20.0*b[i + 72*ldb] + 18.0*b[i + 87*ldb] + 27.0*b[i + 88*ldb] + 31.0*b[i + 113*ldb];
    3078:	c5 fb 11 bd d0 e5 ff 	vmovsd QWORD PTR [rbp-0x1a30],xmm7
    307f:	ff 
    3080:	62 91 ef 00 59 ff    	vmulsd xmm7,xmm18,xmm31
    3086:	c5 cb 58 b5 90 df ff 	vaddsd xmm6,xmm6,QWORD PTR [rbp-0x2070]
    308d:	ff 
    308e:	62 61 ff 08 11 bd 90 	vmovsd QWORD PTR [rbp-0x570],xmm31
    3095:	fa ff ff 
    3098:	c5 cb 58 f7          	vaddsd xmm6,xmm6,xmm7
    309c:	62 f1 97 00 59 bd d0 	vmulsd xmm7,xmm29,QWORD PTR [rbp-0xa30]
    30a3:	f5 ff ff 
    30a6:	c5 cb 58 ff          	vaddsd xmm7,xmm6,xmm7
    30aa:	62 f1 ef 00 59 75 c2 	vmulsd xmm6,xmm18,QWORD PTR [rbp-0x1f0]
    30b1:	c5 c3 58 fe          	vaddsd xmm7,xmm7,xmm6
    30b5:	62 f1 bf 00 59 b5 d0 	vmulsd xmm6,xmm24,QWORD PTR [rbp-0x430]
    30bc:	fb ff ff 
    30bf:	c5 c3 58 f6          	vaddsd xmm6,xmm7,xmm6
    30c3:	c5 fb 10 bd 10 e6 ff 	vmovsd xmm7,QWORD PTR [rbp-0x19f0]
    30ca:	ff 
    30cb:	62 b1 c7 08 59 fe    	vmulsd xmm7,xmm7,xmm22
    30d1:	c5 cb 58 f7          	vaddsd xmm6,xmm6,xmm7
        dotp = 31.0*b[i + 7*ldb] + 14.0*b[i + 52*ldb] + 23.0*b[i + 85*ldb] + 27.0*b[i + 118*ldb];
    30d5:	62 f1 f7 00 59 bd 10 	vmulsd xmm7,xmm17,QWORD PTR [rbp-0x7f0]
    30dc:	f8 ff ff 
        c[i + 36*ldc] = dotp;
    30df:	c4 a1 7b 11 34 d1    	vmovsd QWORD PTR [rcx+r10*8],xmm6
        dotp = 31.0*b[i + 7*ldb] + 14.0*b[i + 52*ldb] + 23.0*b[i + 85*ldb] + 27.0*b[i + 118*ldb];
    30e5:	62 f1 cf 00 59 b5 d0 	vmulsd xmm6,xmm22,QWORD PTR [rbp-0x1a30]
    30ec:	e5 ff ff 
        c[i + 37*ldc] = dotp;
    30ef:	4c 63 d2             	movsxd r10,edx
        c[i + 38*ldc] = dotp;
    30f2:	44 01 c2             	add    edx,r8d
        dotp = 31.0*b[i + 7*ldb] + 14.0*b[i + 52*ldb] + 23.0*b[i + 85*ldb] + 27.0*b[i + 118*ldb];
    30f5:	c5 c3 58 fe          	vaddsd xmm7,xmm7,xmm6
    30f9:	c5 fb 59 b5 50 f1 ff 	vmulsd xmm6,xmm0,QWORD PTR [rbp-0xeb0]
    3100:	ff 
    3101:	c5 c3 58 f6          	vaddsd xmm6,xmm7,xmm6
    3105:	62 f1 bf 00 59 bd 90 	vmulsd xmm7,xmm24,QWORD PTR [rbp-0x870]
    310c:	f7 ff ff 
    310f:	c5 cb 58 f7          	vaddsd xmm6,xmm6,xmm7
        dotp = 11.0*b[i + 26*ldb] + 31.0*b[i + 29*ldb] + 29.0*b[i + 40*ldb] + 3.0*b[i + 44*ldb] + 20.0*b[i + 63*ldb] + 18.0*b[i + 110*ldb];
    3113:	c5 8b 59 bd d0 f0 ff 	vmulsd xmm7,xmm14,QWORD PTR [rbp-0xf30]
    311a:	ff 
        c[i + 37*ldc] = dotp;
    311b:	c4 a1 7b 11 34 d1    	vmovsd QWORD PTR [rcx+r10*8],xmm6
        dotp = 11.0*b[i + 26*ldb] + 31.0*b[i + 29*ldb] + 29.0*b[i + 40*ldb] + 3.0*b[i + 44*ldb] + 20.0*b[i + 63*ldb] + 18.0*b[i + 110*ldb];
    3121:	62 f1 cf 00 59 b5 10 	vmulsd xmm6,xmm22,QWORD PTR [rbp-0xbf0]
    3128:	f4 ff ff 
        c[i + 38*ldc] = dotp;
    312b:	4c 63 d2             	movsxd r10,edx
        c[i + 39*ldc] = dotp;
    312e:	44 01 c2             	add    edx,r8d
        dotp = 11.0*b[i + 26*ldb] + 31.0*b[i + 29*ldb] + 29.0*b[i + 40*ldb] + 3.0*b[i + 44*ldb] + 20.0*b[i + 63*ldb] + 18.0*b[i + 110*ldb];
    3131:	62 61 fd 48 28 ff    	vmovapd zmm31,zmm7
    3137:	c5 83 59 bd 50 ee ff 	vmulsd xmm7,xmm15,QWORD PTR [rbp-0x11b0]
    313e:	ff 
    313f:	62 61 ff 08 11 bd 00 	vmovsd QWORD PTR [rbp-0x2500],xmm31
    3146:	db ff ff 
    3149:	c5 cb 58 f7          	vaddsd xmm6,xmm6,xmm7
    314d:	62 91 cf 08 58 f7    	vaddsd xmm6,xmm6,xmm31
    3153:	62 61 ff 08 10 7d e2 	vmovsd xmm31,QWORD PTR [rbp-0xf0]
    315a:	62 f1 87 00 59 bd d0 	vmulsd xmm7,xmm31,QWORD PTR [rbp-0x1330]
    3161:	ec ff ff 
    3164:	c5 cb 58 ff          	vaddsd xmm7,xmm6,xmm7
    3168:	62 f1 97 00 59 b5 10 	vmulsd xmm6,xmm29,QWORD PTR [rbp-0xaf0]
    316f:	f5 ff ff 
    3172:	c5 c3 58 f6          	vaddsd xmm6,xmm7,xmm6
    3176:	62 f1 ef 00 59 bd d0 	vmulsd xmm7,xmm18,QWORD PTR [rbp-0x1c30]
    317d:	e3 ff ff 
    3180:	c5 cb 58 f7          	vaddsd xmm6,xmm6,xmm7
        c[i + 38*ldc] = dotp;
    3184:	c4 a1 7b 11 34 d1    	vmovsd QWORD PTR [rcx+r10*8],xmm6
        dotp = 12.0*b[i + 14*ldb] + 20.0*b[i + 55*ldb] + 28.0*b[i + 58*ldb] + 9.0*b[i + 60*ldb] + 24.0*b[i + 67*ldb] + 8.0*b[i + 83*ldb] + 21.0*b[i + 106*ldb] + 4.0*b[i + 115*ldb];
    318a:	45 8d 14 06          	lea    r10d,[r14+rax*1]
    318e:	62 f1 97 00 59 b5 d0 	vmulsd xmm6,xmm29,QWORD PTR [rbp-0xb30]
    3195:	f4 ff ff 
    3198:	4d 63 d2             	movsxd r10,r10d
    319b:	c4 a1 7b 10 3c d6    	vmovsd xmm7,QWORD PTR [rsi+r10*8]
        c[i + 39*ldc] = dotp;
    31a1:	4c 63 d2             	movsxd r10,edx
        c[i + 40*ldc] = dotp;
    31a4:	44 01 c2             	add    edx,r8d
        dotp = 12.0*b[i + 14*ldb] + 20.0*b[i + 55*ldb] + 28.0*b[i + 58*ldb] + 9.0*b[i + 60*ldb] + 24.0*b[i + 67*ldb] + 8.0*b[i + 83*ldb] + 21.0*b[i + 106*ldb] + 4.0*b[i + 115*ldb];
    31a7:	62 61 fd 48 28 ff    	vmovapd zmm31,zmm7
    31ad:	c5 cb 58 bd d0 f6 ff 	vaddsd xmm7,xmm6,QWORD PTR [rbp-0x930]
    31b4:	ff 
    31b5:	c5 ab 59 b5 50 f6 ff 	vmulsd xmm6,xmm10,QWORD PTR [rbp-0x9b0]
    31bc:	ff 
    31bd:	62 61 ff 08 11 bd d0 	vmovsd QWORD PTR [rbp-0x930],xmm31
    31c4:	f6 ff ff 
    31c7:	c5 c3 58 f6          	vaddsd xmm6,xmm7,xmm6
    31cb:	62 91 df 00 59 ff    	vmulsd xmm7,xmm20,xmm31
    31d1:	c5 cb 58 f7          	vaddsd xmm6,xmm6,xmm7
    31d5:	62 f1 b7 00 59 bd 50 	vmulsd xmm7,xmm25,QWORD PTR [rbp-0x12b0]
    31dc:	ed ff ff 
    31df:	c5 cb 58 ff          	vaddsd xmm7,xmm6,xmm7
    31e3:	c5 d3 59 b5 50 f3 ff 	vmulsd xmm6,xmm5,QWORD PTR [rbp-0xcb0]
    31ea:	ff 
    31eb:	c5 c3 58 fe          	vaddsd xmm7,xmm7,xmm6
    31ef:	c5 db 59 b5 10 f3 ff 	vmulsd xmm6,xmm4,QWORD PTR [rbp-0xcf0]
    31f6:	ff 
    31f7:	c5 c3 58 f6          	vaddsd xmm6,xmm7,xmm6
    31fb:	62 f1 9f 00 59 bd 90 	vmulsd xmm7,xmm28,QWORD PTR [rbp-0x970]
    3202:	f6 ff ff 
    3205:	c5 cb 58 f7          	vaddsd xmm6,xmm6,xmm7
        c[i + 39*ldc] = dotp;
    3209:	c4 a1 7b 11 34 d1    	vmovsd QWORD PTR [rcx+r10*8],xmm6
        dotp = 1.0*b[i + 12*ldb] + 28.0*b[i + 16*ldb] + 29.0*b[i + 29*ldb] + 20.0*b[i + 50*ldb] + 28.0*b[i + 67*ldb] + 22.0*b[i + 69*ldb] + 30.0*b[i + 117*ldb];
    320f:	44 8b b5 78 dc ff ff 	mov    r14d,DWORD PTR [rbp-0x2388]
    3216:	45 8d 14 06          	lea    r10d,[r14+rax*1]
    321a:	4d 63 d2             	movsxd r10,r10d
    321d:	c4 a1 7b 10 3c d6    	vmovsd xmm7,QWORD PTR [rsi+r10*8]
        c[i + 40*ldc] = dotp;
    3223:	4c 63 d2             	movsxd r10,edx
        c[i + 41*ldc] = dotp;
    3226:	44 01 c2             	add    edx,r8d
        dotp = 1.0*b[i + 12*ldb] + 28.0*b[i + 16*ldb] + 29.0*b[i + 29*ldb] + 20.0*b[i + 50*ldb] + 28.0*b[i + 67*ldb] + 22.0*b[i + 69*ldb] + 30.0*b[i + 117*ldb];
    3229:	c5 fb 11 bd d0 eb ff 	vmovsd QWORD PTR [rbp-0x1430],xmm7
    3230:	ff 
    3231:	62 f1 97 00 59 f7    	vmulsd xmm6,xmm29,xmm7
    3237:	c5 fb 10 bd 10 f0 ff 	vmovsd xmm7,QWORD PTR [rbp-0xff0]
    323e:	ff 
    323f:	c5 c3 58 bd 50 f7 ff 	vaddsd xmm7,xmm7,QWORD PTR [rbp-0x8b0]
    3246:	ff 
    3247:	62 61 fd 48 28 fe    	vmovapd zmm31,zmm6
    324d:	c5 8b 59 b5 10 f4 ff 	vmulsd xmm6,xmm14,QWORD PTR [rbp-0xbf0]
    3254:	ff 
    3255:	62 61 ff 08 11 bd 08 	vmovsd QWORD PTR [rbp-0x24f8],xmm31
    325c:	db ff ff 
    325f:	c5 cb 58 f7          	vaddsd xmm6,xmm6,xmm7
    3263:	c5 ab 59 bd 50 ed ff 	vmulsd xmm7,xmm10,QWORD PTR [rbp-0x12b0]
    326a:	ff 
    326b:	62 91 cf 08 58 f7    	vaddsd xmm6,xmm6,xmm31
    3271:	62 61 ff 08 10 bd 10 	vmovsd xmm31,QWORD PTR [rbp-0x5f0]
    3278:	fa ff ff 
    327b:	c5 cb 58 ff          	vaddsd xmm7,xmm6,xmm7
    327f:	62 f1 87 00 59 75 d2 	vmulsd xmm6,xmm31,QWORD PTR [rbp-0x170]
    3286:	c5 c3 58 f6          	vaddsd xmm6,xmm7,xmm6
    328a:	c5 f3 59 bd 10 fc ff 	vmulsd xmm7,xmm1,QWORD PTR [rbp-0x3f0]
    3291:	ff 
    3292:	c5 cb 58 f7          	vaddsd xmm6,xmm6,xmm7
        dotp = 9.0*b[i + 16*ldb] + 30.0*b[i + 40*ldb] + 22.0*b[i + 55*ldb] + 24.0*b[i + 58*ldb] + 26.0*b[i + 65*ldb] + 10.0*b[i + 68*ldb] + 9.0*b[i + 115*ldb];
    3296:	62 f1 b7 00 59 bd 50 	vmulsd xmm7,xmm25,QWORD PTR [rbp-0x9b0]
    329d:	f6 ff ff 
        c[i + 40*ldc] = dotp;
    32a0:	c4 a1 7b 11 34 d1    	vmovsd QWORD PTR [rcx+r10*8],xmm6
        dotp = 9.0*b[i + 16*ldb] + 30.0*b[i + 40*ldb] + 22.0*b[i + 55*ldb] + 24.0*b[i + 58*ldb] + 26.0*b[i + 65*ldb] + 10.0*b[i + 68*ldb] + 9.0*b[i + 115*ldb];
    32a6:	62 f1 df 00 59 b5 50 	vmulsd xmm6,xmm20,QWORD PTR [rbp-0x17b0]
    32ad:	e8 ff ff 
        c[i + 41*ldc] = dotp;
    32b0:	4c 63 d2             	movsxd r10,edx
        c[i + 42*ldc] = dotp;
    32b3:	44 01 c2             	add    edx,r8d
        dotp = 9.0*b[i + 16*ldb] + 30.0*b[i + 40*ldb] + 22.0*b[i + 55*ldb] + 24.0*b[i + 58*ldb] + 26.0*b[i + 65*ldb] + 10.0*b[i + 68*ldb] + 9.0*b[i + 115*ldb];
    32b6:	62 61 fd 48 28 fe    	vmovapd zmm31,zmm6
    32bc:	c5 f3 59 b5 d0 f0 ff 	vmulsd xmm6,xmm1,QWORD PTR [rbp-0xf30]
    32c3:	ff 
    32c4:	62 61 ff 08 11 bd 10 	vmovsd QWORD PTR [rbp-0x24f0],xmm31
    32cb:	db ff ff 
    32ce:	62 91 cf 08 58 f7    	vaddsd xmm6,xmm6,xmm31
    32d4:	62 91 cf 08 58 f2    	vaddsd xmm6,xmm6,xmm26
    32da:	c5 cb 58 ff          	vaddsd xmm7,xmm6,xmm7
    32de:	c5 e3 59 b5 50 eb ff 	vmulsd xmm6,xmm3,QWORD PTR [rbp-0x14b0]
    32e5:	ff 
    32e6:	c5 c3 58 fe          	vaddsd xmm7,xmm7,xmm6
    32ea:	62 f1 c7 00 59 b5 90 	vmulsd xmm6,xmm23,QWORD PTR [rbp-0x1070]
    32f1:	ef ff ff 
    32f4:	c5 c3 58 f6          	vaddsd xmm6,xmm7,xmm6
    32f8:	62 f1 df 00 59 bd 90 	vmulsd xmm7,xmm20,QWORD PTR [rbp-0x970]
    32ff:	f6 ff ff 
    3302:	c5 cb 58 f7          	vaddsd xmm6,xmm6,xmm7
        dotp = 13.0*b[i + 4*ldb] + 10.0*b[i + 5*ldb] + 15.0*b[i + 114*ldb];
    3306:	62 f1 ff 00 59 bd 10 	vmulsd xmm7,xmm16,QWORD PTR [rbp-0x6f0]
    330d:	f9 ff ff 
        c[i + 41*ldc] = dotp;
    3310:	c4 a1 7b 11 34 d1    	vmovsd QWORD PTR [rcx+r10*8],xmm6
        dotp = 13.0*b[i + 4*ldb] + 10.0*b[i + 5*ldb] + 15.0*b[i + 114*ldb];
    3316:	62 f1 c7 00 59 b5 d0 	vmulsd xmm6,xmm23,QWORD PTR [rbp-0x1730]
    331d:	e8 ff ff 
        c[i + 42*ldc] = dotp;
    3320:	4c 63 d2             	movsxd r10,edx
        c[i + 43*ldc] = dotp;
    3323:	44 01 c2             	add    edx,r8d
        dotp = 13.0*b[i + 4*ldb] + 10.0*b[i + 5*ldb] + 15.0*b[i + 114*ldb];
    3326:	62 61 fd 48 28 fe    	vmovapd zmm31,zmm6
    332c:	62 f1 8f 00 59 b5 90 	vmulsd xmm6,xmm30,QWORD PTR [rbp-0xc70]
    3333:	f3 ff ff 
    3336:	62 61 ff 08 11 bd 18 	vmovsd QWORD PTR [rbp-0x24e8],xmm31
    333d:	db ff ff 
    3340:	62 91 cf 08 58 f7    	vaddsd xmm6,xmm6,xmm31
    3346:	c5 cb 58 f7          	vaddsd xmm6,xmm6,xmm7
        c[i + 42*ldc] = dotp;
    334a:	c4 a1 7b 11 34 d1    	vmovsd QWORD PTR [rcx+r10*8],xmm6
        dotp = 9.0*b[i + 31*ldb] + 30.0*b[i + 47*ldb] + 11.0*b[i + 53*ldb] + 12.0*b[i + 78*ldb] + 4.0*b[i + 91*ldb] + 9.0*b[i + 105*ldb];
    3350:	62 f1 df 00 59 b5 50 	vmulsd xmm6,xmm20,QWORD PTR [rbp-0xbb0]
    3357:	f4 ff ff 
    335a:	44 8b 95 88 db ff ff 	mov    r10d,DWORD PTR [rbp-0x2478]
    3361:	41 01 c2             	add    r10d,eax
    3364:	4d 63 d2             	movsxd r10,r10d
    3367:	c5 fb 11 b5 10 e2 ff 	vmovsd QWORD PTR [rbp-0x1df0],xmm6
    336e:	ff 
    336f:	c4 a1 7b 10 34 d6    	vmovsd xmm6,QWORD PTR [rsi+r10*8]
        c[i + 43*ldc] = dotp;
    3375:	4c 63 d2             	movsxd r10,edx
        c[i + 44*ldc] = dotp;
    3378:	44 01 c2             	add    edx,r8d
        dotp = 9.0*b[i + 31*ldb] + 30.0*b[i + 47*ldb] + 11.0*b[i + 53*ldb] + 12.0*b[i + 78*ldb] + 4.0*b[i + 91*ldb] + 9.0*b[i + 105*ldb];
    337b:	c5 f9 28 fe          	vmovapd xmm7,xmm6
    337f:	c5 a3 59 b5 d0 f3 ff 	vmulsd xmm6,xmm11,QWORD PTR [rbp-0xc30]
    3386:	ff 
    3387:	62 61 fd 48 28 fe    	vmovapd zmm31,zmm6
    338d:	c5 f3 59 b5 50 fb ff 	vmulsd xmm6,xmm1,QWORD PTR [rbp-0x4b0]
    3394:	ff 
    3395:	c5 cb 58 b5 10 e2 ff 	vaddsd xmm6,xmm6,QWORD PTR [rbp-0x1df0]
    339c:	ff 
    339d:	c5 fb 11 bd d0 f1 ff 	vmovsd QWORD PTR [rbp-0xe30],xmm7
    33a4:	ff 
    33a5:	c5 83 59 ff          	vmulsd xmm7,xmm15,xmm7
        dotp = 6.0*b[i + 29*ldb] + 15.0*b[i + 46*ldb] + 1.0*b[i + 54*ldb] + 26.0*b[i + 75*ldb] + 16.0*b[i + 108*ldb] + 12.0*b[i + 116*ldb];
    33a9:	44 8b b5 74 dc ff ff 	mov    r14d,DWORD PTR [rbp-0x238c]
        dotp = 9.0*b[i + 31*ldb] + 30.0*b[i + 47*ldb] + 11.0*b[i + 53*ldb] + 12.0*b[i + 78*ldb] + 4.0*b[i + 91*ldb] + 9.0*b[i + 105*ldb];
    33b0:	62 61 ff 08 11 bd 20 	vmovsd QWORD PTR [rbp-0x24e0],xmm31
    33b7:	db ff ff 
    33ba:	c5 cb 58 f7          	vaddsd xmm6,xmm6,xmm7
    33be:	62 f1 9f 00 59 bd 90 	vmulsd xmm7,xmm28,QWORD PTR [rbp-0xd70]
    33c5:	f2 ff ff 
    33c8:	62 91 cf 08 58 f7    	vaddsd xmm6,xmm6,xmm31
    33ce:	c5 cb 58 f7          	vaddsd xmm6,xmm6,xmm7
    33d2:	62 f1 df 00 59 bd d0 	vmulsd xmm7,xmm20,QWORD PTR [rbp-0x1b30]
    33d9:	e4 ff ff 
    33dc:	c5 cb 58 f7          	vaddsd xmm6,xmm6,xmm7
        c[i + 43*ldc] = dotp;
    33e0:	c4 a1 7b 11 34 d1    	vmovsd QWORD PTR [rcx+r10*8],xmm6
        dotp = 6.0*b[i + 29*ldb] + 15.0*b[i + 46*ldb] + 1.0*b[i + 54*ldb] + 26.0*b[i + 75*ldb] + 16.0*b[i + 108*ldb] + 12.0*b[i + 116*ldb];
    33e6:	c5 9b 59 b5 10 f4 ff 	vmulsd xmm6,xmm12,QWORD PTR [rbp-0xbf0]
    33ed:	ff 
    33ee:	45 8d 14 06          	lea    r10d,[r14+rax*1]
        dotp = 31.0*b[i + 2*ldb] + 9.0*b[i + 14*ldb] + 11.0*b[i + 57*ldb] + 13.0*b[i + 62*ldb] + 9.0*b[i + 64*ldb] + 28.0*b[i + 70*ldb] + 2.0*b[i + 100*ldb] + 31.0*b[i + 101*ldb] + 30.0*b[i + 106*ldb] + 13.0*b[i + 112*ldb];
    33f2:	44 8b b5 6c dc ff ff 	mov    r14d,DWORD PTR [rbp-0x2394]
        dotp = 6.0*b[i + 29*ldb] + 15.0*b[i + 46*ldb] + 1.0*b[i + 54*ldb] + 26.0*b[i + 75*ldb] + 16.0*b[i + 108*ldb] + 12.0*b[i + 116*ldb];
    33f9:	4d 63 d2             	movsxd r10,r10d
    33fc:	62 61 fd 48 28 fe    	vmovapd zmm31,zmm6
    3402:	c4 a1 7b 10 34 d6    	vmovsd xmm6,QWORD PTR [rsi+r10*8]
    3408:	44 8b 95 70 dc ff ff 	mov    r10d,DWORD PTR [rbp-0x2390]
    340f:	62 61 ff 08 11 bd 28 	vmovsd QWORD PTR [rbp-0x24d8],xmm31
    3416:	db ff ff 
    3419:	41 01 c2             	add    r10d,eax
    341c:	c5 f9 28 fe          	vmovapd xmm7,xmm6
    3420:	c5 fb 11 bd 10 ec ff 	vmovsd QWORD PTR [rbp-0x13f0],xmm7
    3427:	ff 
    3428:	4d 63 d2             	movsxd r10,r10d
    342b:	c4 a1 7b 10 34 d6    	vmovsd xmm6,QWORD PTR [rsi+r10*8]
    3431:	c5 e3 59 ff          	vmulsd xmm7,xmm3,xmm7
        c[i + 44*ldc] = dotp;
    3435:	4c 63 d2             	movsxd r10,edx
        dotp = 6.0*b[i + 29*ldb] + 15.0*b[i + 46*ldb] + 1.0*b[i + 54*ldb] + 26.0*b[i + 75*ldb] + 16.0*b[i + 108*ldb] + 12.0*b[i + 116*ldb];
    3438:	c5 fb 11 b5 10 f7 ff 	vmovsd QWORD PTR [rbp-0x8f0],xmm6
    343f:	ff 
    3440:	62 b1 d7 00 59 f0    	vmulsd xmm6,xmm21,xmm16
    3446:	62 91 cf 08 58 f7    	vaddsd xmm6,xmm6,xmm31
    344c:	c5 cb 58 b5 90 f9 ff 	vaddsd xmm6,xmm6,QWORD PTR [rbp-0x670]
    3453:	ff 
    3454:	c5 cb 58 ff          	vaddsd xmm7,xmm6,xmm7
    3458:	c5 bb 59 b5 10 f7 ff 	vmulsd xmm6,xmm8,QWORD PTR [rbp-0x8f0]
    345f:	ff 
    3460:	c5 c3 58 f6          	vaddsd xmm6,xmm7,xmm6
    3464:	c5 a3 59 bd d0 ea ff 	vmulsd xmm7,xmm11,QWORD PTR [rbp-0x1530]
    346b:	ff 
    346c:	c5 cb 58 f7          	vaddsd xmm6,xmm6,xmm7
        c[i + 44*ldc] = dotp;
    3470:	c4 a1 7b 11 34 d1    	vmovsd QWORD PTR [rcx+r10*8],xmm6
        dotp = 31.0*b[i + 2*ldb] + 9.0*b[i + 14*ldb] + 11.0*b[i + 57*ldb] + 13.0*b[i + 62*ldb] + 9.0*b[i + 64*ldb] + 28.0*b[i + 70*ldb] + 2.0*b[i + 100*ldb] + 31.0*b[i + 101*ldb] + 30.0*b[i + 106*ldb] + 13.0*b[i + 112*ldb];
    3476:	45 8d 14 06          	lea    r10d,[r14+rax*1]
    347a:	62 f1 cf 00 59 75 8a 	vmulsd xmm6,xmm22,QWORD PTR [rbp-0x3b0]
    3481:	62 c1 87 08 59 f1    	vmulsd xmm22,xmm15,xmm9
    3487:	4d 63 d2             	movsxd r10,r10d
    348a:	c4 21 7b 10 0c d6    	vmovsd xmm9,QWORD PTR [rsi+r10*8]
    3490:	44 8b 95 68 dc ff ff 	mov    r10d,DWORD PTR [rbp-0x2398]
    3497:	c5 7b 11 8d 50 f7 ff 	vmovsd QWORD PTR [rbp-0x8b0],xmm9
    349e:	ff 
    349f:	41 01 c2             	add    r10d,eax
        c[i + 45*ldc] = dotp;
    34a2:	44 01 c2             	add    edx,r8d
        dotp = 31.0*b[i + 2*ldb] + 9.0*b[i + 14*ldb] + 11.0*b[i + 57*ldb] + 13.0*b[i + 62*ldb] + 9.0*b[i + 64*ldb] + 28.0*b[i + 70*ldb] + 2.0*b[i + 100*ldb] + 31.0*b[i + 101*ldb] + 30.0*b[i + 106*ldb] + 13.0*b[i + 112*ldb];
    34a5:	62 71 df 00 59 8d 10 	vmulsd xmm9,xmm20,QWORD PTR [rbp-0x18f0]
    34ac:	e7 ff ff 
    34af:	4d 63 d2             	movsxd r10,r10d
    34b2:	62 21 fd 48 28 fe    	vmovapd zmm31,zmm22
    34b8:	62 a1 ff 08 10 34 d6 	vmovsd xmm22,QWORD PTR [rsi+r10*8]
        c[i + 45*ldc] = dotp;
    34bf:	4c 63 d2             	movsxd r10,edx
        c[i + 46*ldc] = dotp;
    34c2:	44 01 c2             	add    edx,r8d
        dotp = 31.0*b[i + 2*ldb] + 9.0*b[i + 14*ldb] + 11.0*b[i + 57*ldb] + 13.0*b[i + 62*ldb] + 9.0*b[i + 64*ldb] + 28.0*b[i + 70*ldb] + 2.0*b[i + 100*ldb] + 31.0*b[i + 101*ldb] + 30.0*b[i + 106*ldb] + 13.0*b[i + 112*ldb];
    34c5:	62 61 ff 08 11 bd 30 	vmovsd QWORD PTR [rbp-0x24d0],xmm31
    34cc:	db ff ff 
    34cf:	62 b1 fd 48 28 fe    	vmovapd zmm7,zmm22
    34d5:	62 e1 8f 00 59 b5 90 	vmulsd xmm22,xmm30,QWORD PTR [rbp-0x1270]
    34dc:	ed ff ff 
    34df:	c5 fb 11 bd 50 ec ff 	vmovsd QWORD PTR [rbp-0x13b0],xmm7
    34e6:	ff 
    34e7:	c5 33 58 ce          	vaddsd xmm9,xmm9,xmm6
    34eb:	62 11 b7 08 58 cf    	vaddsd xmm9,xmm9,xmm31
    34f1:	62 61 8f 00 59 bd 50 	vmulsd xmm31,xmm30,QWORD PTR [rbp-0x8b0]
    34f8:	f7 ff ff 
    34fb:	62 e1 ff 08 11 b5 50 	vmovsd QWORD PTR [rbp-0x1db0],xmm22
    3502:	e2 ff ff 
    3505:	62 e1 ff 08 10 b5 d0 	vmovsd xmm22,QWORD PTR [rbp-0x1030]
    350c:	ef ff ff 
    350f:	62 11 b7 08 58 cf    	vaddsd xmm9,xmm9,xmm31
    3515:	62 61 df 00 59 bd 90 	vmulsd xmm31,xmm20,QWORD PTR [rbp-0x1170]
    351c:	ee ff ff 
    351f:	62 11 b7 08 58 cf    	vaddsd xmm9,xmm9,xmm31
    3525:	62 61 af 08 59 bd 50 	vmulsd xmm31,xmm10,QWORD PTR [rbp-0x10b0]
    352c:	ef ff ff 
    352f:	62 01 b7 08 58 ff    	vaddsd xmm31,xmm9,xmm31
    3535:	62 31 cf 00 58 ce    	vaddsd xmm9,xmm22,xmm22
    353b:	62 41 87 00 58 f9    	vaddsd xmm31,xmm31,xmm9
    3541:	c5 43 59 4d 90       	vmulsd xmm9,xmm7,QWORD PTR [rbp-0x70]
    3546:	62 51 87 00 58 c9    	vaddsd xmm9,xmm31,xmm9
    354c:	62 61 f7 08 59 bd 10 	vmulsd xmm31,xmm1,QWORD PTR [rbp-0xcf0]
    3553:	f3 ff ff 
        dotp = 23.0*b[i + 9*ldb] + 27.0*b[i + 13*ldb] + 10.0*b[i + 46*ldb] + 22.0*b[i + 55*ldb] + 16.0*b[i + 57*ldb] + 18.0*b[i + 60*ldb] + 16.0*b[i + 77*ldb] + 15.0*b[i + 86*ldb] + 18.0*b[i + 105*ldb];
    3556:	62 e1 bf 08 59 75 9a 	vmulsd xmm22,xmm8,QWORD PTR [rbp-0x330]
        dotp = 31.0*b[i + 2*ldb] + 9.0*b[i + 14*ldb] + 11.0*b[i + 57*ldb] + 13.0*b[i + 62*ldb] + 9.0*b[i + 64*ldb] + 28.0*b[i + 70*ldb] + 2.0*b[i + 100*ldb] + 31.0*b[i + 101*ldb] + 30.0*b[i + 106*ldb] + 13.0*b[i + 112*ldb];
    355d:	62 11 b7 08 58 cf    	vaddsd xmm9,xmm9,xmm31
    3563:	c5 33 58 8d 50 e2 ff 	vaddsd xmm9,xmm9,QWORD PTR [rbp-0x1db0]
    356a:	ff 
        dotp = 23.0*b[i + 9*ldb] + 27.0*b[i + 13*ldb] + 10.0*b[i + 46*ldb] + 22.0*b[i + 55*ldb] + 16.0*b[i + 57*ldb] + 18.0*b[i + 60*ldb] + 16.0*b[i + 77*ldb] + 15.0*b[i + 86*ldb] + 18.0*b[i + 105*ldb];
    356b:	62 61 bf 00 59 7d a2 	vmulsd xmm31,xmm24,QWORD PTR [rbp-0x2f0]
    3572:	62 e1 ff 08 11 b5 d0 	vmovsd QWORD PTR [rbp-0x2030],xmm22
    3579:	df ff ff 
    357c:	62 e1 ef 00 59 b5 d0 	vmulsd xmm22,xmm18,QWORD PTR [rbp-0x1b30]
    3583:	e4 ff ff 
        c[i + 45*ldc] = dotp;
    3586:	c4 21 7b 11 0c d1    	vmovsd QWORD PTR [rcx+r10*8],xmm9
        dotp = 23.0*b[i + 9*ldb] + 27.0*b[i + 13*ldb] + 10.0*b[i + 46*ldb] + 22.0*b[i + 55*ldb] + 16.0*b[i + 57*ldb] + 18.0*b[i + 60*ldb] + 16.0*b[i + 77*ldb] + 15.0*b[i + 86*ldb] + 18.0*b[i + 105*ldb];
    358c:	c5 7b 59 8d 90 e6 ff 	vmulsd xmm9,xmm0,QWORD PTR [rbp-0x1970]
    3593:	ff 
        c[i + 46*ldc] = dotp;
    3594:	4c 63 d2             	movsxd r10,edx
        c[i + 47*ldc] = dotp;
    3597:	44 01 c2             	add    edx,r8d
        dotp = 23.0*b[i + 9*ldb] + 27.0*b[i + 13*ldb] + 10.0*b[i + 46*ldb] + 22.0*b[i + 55*ldb] + 16.0*b[i + 57*ldb] + 18.0*b[i + 60*ldb] + 16.0*b[i + 77*ldb] + 15.0*b[i + 86*ldb] + 18.0*b[i + 105*ldb];
    359a:	62 e1 ff 08 11 b5 10 	vmovsd QWORD PTR [rbp-0x1ff0],xmm22
    35a1:	e0 ff ff 
    35a4:	62 51 87 00 58 c9    	vaddsd xmm9,xmm31,xmm9
    35aa:	62 21 d7 00 59 ff    	vmulsd xmm31,xmm21,xmm23
        dotp = 10.0*b[i + 25*ldb] + 13.0*b[i + 46*ldb] + 15.0*b[i + 57*ldb] + 28.0*b[i + 74*ldb];
    35b0:	62 81 d7 00 59 ee    	vmulsd xmm21,xmm21,xmm30
        dotp = 23.0*b[i + 9*ldb] + 27.0*b[i + 13*ldb] + 10.0*b[i + 46*ldb] + 22.0*b[i + 55*ldb] + 16.0*b[i + 57*ldb] + 18.0*b[i + 60*ldb] + 16.0*b[i + 77*ldb] + 15.0*b[i + 86*ldb] + 18.0*b[i + 105*ldb];
    35b6:	62 11 b7 08 58 cf    	vaddsd xmm9,xmm9,xmm31
        dotp = 19.0*b[i + 3*ldb] + 17.0*b[i + 33*ldb] + 9.0*b[i + 45*ldb] + 15.0*b[i + 58*ldb] + 20.0*b[i + 88*ldb] + 13.0*b[i + 89*ldb] + 10.0*b[i + 96*ldb] + 22.0*b[i + 117*ldb];
    35bc:	62 61 ff 08 10 7d 82 	vmovsd xmm31,QWORD PTR [rbp-0x3f0]
        dotp = 23.0*b[i + 9*ldb] + 27.0*b[i + 13*ldb] + 10.0*b[i + 46*ldb] + 22.0*b[i + 55*ldb] + 16.0*b[i + 57*ldb] + 18.0*b[i + 60*ldb] + 16.0*b[i + 77*ldb] + 15.0*b[i + 86*ldb] + 18.0*b[i + 105*ldb];
    35c3:	62 01 b7 08 58 d2    	vaddsd xmm26,xmm9,xmm26
    35c9:	62 71 ef 00 59 8d d0 	vmulsd xmm9,xmm18,QWORD PTR [rbp-0x930]
    35d0:	f6 ff ff 
    35d3:	62 61 af 00 58 95 d0 	vaddsd xmm26,xmm26,QWORD PTR [rbp-0x2030]
    35da:	df ff ff 
    35dd:	62 51 af 00 58 c9    	vaddsd xmm9,xmm26,xmm9
    35e3:	62 61 bf 08 59 95 90 	vmulsd xmm26,xmm8,QWORD PTR [rbp-0x1870]
    35ea:	e7 ff ff 
    35ed:	62 01 b7 08 58 d2    	vaddsd xmm26,xmm9,xmm26
    35f3:	62 71 ff 00 59 8d 50 	vmulsd xmm9,xmm16,QWORD PTR [rbp-0xab0]
    35fa:	f5 ff ff 
    35fd:	62 41 af 00 58 d1    	vaddsd xmm26,xmm26,xmm9
        dotp = 11.0*b[i + 50*ldb] + 16.0*b[i + 87*ldb];
    3603:	c5 03 59 8d d0 eb ff 	vmulsd xmm9,xmm15,QWORD PTR [rbp-0x1430]
    360a:	ff 
        dotp = 23.0*b[i + 9*ldb] + 27.0*b[i + 13*ldb] + 10.0*b[i + 46*ldb] + 22.0*b[i + 55*ldb] + 16.0*b[i + 57*ldb] + 18.0*b[i + 60*ldb] + 16.0*b[i + 77*ldb] + 15.0*b[i + 86*ldb] + 18.0*b[i + 105*ldb];
    360b:	62 21 af 00 58 d6    	vaddsd xmm26,xmm26,xmm22
        c[i + 46*ldc] = dotp;
    3611:	62 21 ff 08 11 14 d1 	vmovsd QWORD PTR [rcx+r10*8],xmm26
        dotp = 11.0*b[i + 50*ldb] + 16.0*b[i + 87*ldb];
    3618:	62 61 bf 08 59 55 c2 	vmulsd xmm26,xmm8,QWORD PTR [rbp-0x1f0]
        c[i + 47*ldc] = dotp;
    361f:	4c 63 d2             	movsxd r10,edx
        c[i + 48*ldc] = dotp;
    3622:	44 01 c2             	add    edx,r8d
        dotp = 11.0*b[i + 50*ldb] + 16.0*b[i + 87*ldb];
    3625:	62 61 ff 08 11 95 38 	vmovsd QWORD PTR [rbp-0x24c8],xmm26
    362c:	db ff ff 
    362f:	62 11 b7 08 58 ca    	vaddsd xmm9,xmm9,xmm26
        dotp = 19.0*b[i + 3*ldb] + 17.0*b[i + 33*ldb] + 9.0*b[i + 45*ldb] + 15.0*b[i + 58*ldb] + 20.0*b[i + 88*ldb] + 13.0*b[i + 89*ldb] + 10.0*b[i + 96*ldb] + 22.0*b[i + 117*ldb];
    3635:	62 61 ff 08 10 55 da 	vmovsd xmm26,QWORD PTR [rbp-0x130]
    363c:	62 61 af 00 59 95 10 	vmulsd xmm26,xmm26,QWORD PTR [rbp-0x15f0]
    3643:	ea ff ff 
        c[i + 47*ldc] = dotp;
    3646:	c4 21 7b 11 0c d1    	vmovsd QWORD PTR [rcx+r10*8],xmm9
        c[i + 48*ldc] = dotp;
    364c:	4c 63 d2             	movsxd r10,edx
        c[i + 49*ldc] = dotp;
    364f:	44 01 c2             	add    edx,r8d
        dotp = 19.0*b[i + 3*ldb] + 17.0*b[i + 33*ldb] + 9.0*b[i + 45*ldb] + 15.0*b[i + 58*ldb] + 20.0*b[i + 88*ldb] + 13.0*b[i + 89*ldb] + 10.0*b[i + 96*ldb] + 22.0*b[i + 117*ldb];
    3652:	62 81 fd 48 28 f2    	vmovapd zmm22,zmm26
    3658:	62 e1 ff 08 11 b5 40 	vmovsd QWORD PTR [rbp-0x24c0],xmm22
    365f:	db ff ff 
    3662:	62 21 ef 08 59 d7    	vmulsd xmm26,xmm2,xmm23
    3668:	62 91 fd 48 28 fa    	vmovapd zmm7,zmm26
    366e:	62 61 97 08 59 95 50 	vmulsd xmm26,xmm13,QWORD PTR [rbp-0x21b0]
    3675:	de ff ff 
    3678:	c5 fb 11 bd 48 db ff 	vmovsd QWORD PTR [rbp-0x24b8],xmm7
    367f:	ff 
    3680:	62 31 af 00 58 ce    	vaddsd xmm9,xmm26,xmm22
    3686:	62 61 df 00 59 95 90 	vmulsd xmm26,xmm20,QWORD PTR [rbp-0xa70]
    368d:	f5 ff ff 
        dotp = 24.0*b[i + 41*ldb] + 26.0*b[i + 43*ldb] + 1.0*b[i + 84*ldb] + 29.0*b[i + 87*ldb];
    3690:	62 e1 ff 08 10 75 b2 	vmovsd xmm22,QWORD PTR [rbp-0x270]
        dotp = 19.0*b[i + 3*ldb] + 17.0*b[i + 33*ldb] + 9.0*b[i + 45*ldb] + 15.0*b[i + 58*ldb] + 20.0*b[i + 88*ldb] + 13.0*b[i + 89*ldb] + 10.0*b[i + 96*ldb] + 22.0*b[i + 117*ldb];
    3697:	62 01 b7 08 58 d2    	vaddsd xmm26,xmm9,xmm26
    369d:	62 71 ff 00 59 8d 50 	vmulsd xmm9,xmm16,QWORD PTR [rbp-0x9b0]
    36a4:	f6 ff ff 
    36a7:	62 41 af 00 58 d1    	vaddsd xmm26,xmm26,xmm9
    36ad:	62 71 97 00 59 8d d0 	vmulsd xmm9,xmm29,QWORD PTR [rbp-0x430]
    36b4:	fb ff ff 
    36b7:	62 51 af 00 58 c9    	vaddsd xmm9,xmm26,xmm9
    36bd:	62 61 8f 00 59 95 d0 	vmulsd xmm26,xmm30,QWORD PTR [rbp-0x630]
    36c4:	f9 ff ff 
    36c7:	62 11 b7 08 58 ca    	vaddsd xmm9,xmm9,xmm26
    36cd:	62 61 87 00 59 55 d2 	vmulsd xmm26,xmm31,QWORD PTR [rbp-0x170]
    36d4:	c5 33 58 cf          	vaddsd xmm9,xmm9,xmm7
    36d8:	62 11 b7 08 58 ca    	vaddsd xmm9,xmm9,xmm26
        dotp = 24.0*b[i + 41*ldb] + 26.0*b[i + 43*ldb] + 1.0*b[i + 84*ldb] + 29.0*b[i + 87*ldb];
    36de:	62 61 b7 00 59 95 90 	vmulsd xmm26,xmm25,QWORD PTR [rbp-0xe70]
    36e5:	f1 ff ff 
        c[i + 48*ldc] = dotp;
    36e8:	c4 21 7b 11 0c d1    	vmovsd QWORD PTR [rcx+r10*8],xmm9
        dotp = 24.0*b[i + 41*ldb] + 26.0*b[i + 43*ldb] + 1.0*b[i + 84*ldb] + 29.0*b[i + 87*ldb];
    36ee:	62 31 e7 08 59 ce    	vmulsd xmm9,xmm3,xmm22
        c[i + 49*ldc] = dotp;
    36f4:	4c 63 d2             	movsxd r10,edx
        c[i + 50*ldc] = dotp;
    36f7:	44 01 c2             	add    edx,r8d
        dotp = 24.0*b[i + 41*ldb] + 26.0*b[i + 43*ldb] + 1.0*b[i + 84*ldb] + 29.0*b[i + 87*ldb];
    36fa:	62 11 b7 08 58 ca    	vaddsd xmm9,xmm9,xmm26
    3700:	c5 33 58 8d 90 f8 ff 	vaddsd xmm9,xmm9,QWORD PTR [rbp-0x770]
    3707:	ff 
    3708:	62 61 ff 08 10 7d c2 	vmovsd xmm31,QWORD PTR [rbp-0x1f0]
        dotp = 28.0*b[i + 23*ldb] + 26.0*b[i + 59*ldb] + 24.0*b[i + 81*ldb] + 21.0*b[i + 87*ldb] + 1.0*b[i + 96*ldb] + 10.0*b[i + 102*ldb] + 12.0*b[i + 107*ldb];
    370f:	c5 fb 10 bd 10 f2 ff 	vmovsd xmm7,QWORD PTR [rbp-0xdf0]
    3716:	ff 
        dotp = 24.0*b[i + 41*ldb] + 26.0*b[i + 43*ldb] + 1.0*b[i + 84*ldb] + 29.0*b[i + 87*ldb];
    3717:	62 01 8f 08 59 d7    	vmulsd xmm26,xmm14,xmm31
    371d:	62 11 b7 08 58 ca    	vaddsd xmm9,xmm9,xmm26
        dotp = 28.0*b[i + 23*ldb] + 26.0*b[i + 59*ldb] + 24.0*b[i + 81*ldb] + 21.0*b[i + 87*ldb] + 1.0*b[i + 96*ldb] + 10.0*b[i + 102*ldb] + 12.0*b[i + 107*ldb];
    3723:	62 61 af 08 59 95 50 	vmulsd xmm26,xmm10,QWORD PTR [rbp-0x6b0]
    372a:	f9 ff ff 
        c[i + 49*ldc] = dotp;
    372d:	c4 21 7b 11 0c d1    	vmovsd QWORD PTR [rcx+r10*8],xmm9
        dotp = 28.0*b[i + 23*ldb] + 26.0*b[i + 59*ldb] + 24.0*b[i + 81*ldb] + 21.0*b[i + 87*ldb] + 1.0*b[i + 96*ldb] + 10.0*b[i + 102*ldb] + 12.0*b[i + 107*ldb];
    3733:	c5 63 59 8d d0 fd ff 	vmulsd xmm9,xmm3,QWORD PTR [rbp-0x230]
    373a:	ff 
        c[i + 50*ldc] = dotp;
    373b:	4c 63 d2             	movsxd r10,edx
        c[i + 51*ldc] = dotp;
    373e:	44 01 c2             	add    edx,r8d
        dotp = 28.0*b[i + 23*ldb] + 26.0*b[i + 59*ldb] + 24.0*b[i + 81*ldb] + 21.0*b[i + 87*ldb] + 1.0*b[i + 96*ldb] + 10.0*b[i + 102*ldb] + 12.0*b[i + 107*ldb];
    3741:	62 61 ff 08 11 95 50 	vmovsd QWORD PTR [rbp-0x24b0],xmm26
    3748:	db ff ff 
    374b:	62 01 b7 08 58 d2    	vaddsd xmm26,xmm9,xmm26
    3751:	62 71 b7 00 59 cf    	vmulsd xmm9,xmm25,xmm7
    3757:	62 51 af 00 58 c9    	vaddsd xmm9,xmm26,xmm9
    375d:	62 01 df 08 59 d7    	vmulsd xmm26,xmm4,xmm31
    3763:	62 11 b7 08 58 ca    	vaddsd xmm9,xmm9,xmm26
    3769:	62 61 c7 00 59 95 90 	vmulsd xmm26,xmm23,QWORD PTR [rbp-0x1570]
    3770:	ea ff ff 
    3773:	c5 33 58 ca          	vaddsd xmm9,xmm9,xmm2
    3777:	62 11 b7 08 58 ca    	vaddsd xmm9,xmm9,xmm26
    377d:	62 61 a7 08 59 95 10 	vmulsd xmm26,xmm11,QWORD PTR [rbp-0x4f0]
    3784:	fb ff ff 
    3787:	62 11 b7 08 58 ca    	vaddsd xmm9,xmm9,xmm26
        dotp = 16.0*b[i + 29*ldb] + 23.0*b[i + 45*ldb] + 14.0*b[i + 60*ldb] + 14.0*b[i + 76*ldb] + 8.0*b[i + 81*ldb];
    378d:	62 61 ff 08 59 95 90 	vmulsd xmm26,xmm0,QWORD PTR [rbp-0xa70]
    3794:	f5 ff ff 
        c[i + 50*ldc] = dotp;
    3797:	c4 21 7b 11 0c d1    	vmovsd QWORD PTR [rcx+r10*8],xmm9
        dotp = 16.0*b[i + 29*ldb] + 23.0*b[i + 45*ldb] + 14.0*b[i + 60*ldb] + 14.0*b[i + 76*ldb] + 8.0*b[i + 81*ldb];
    379d:	c5 53 59 cf          	vmulsd xmm9,xmm5,xmm7
        c[i + 51*ldc] = dotp;
    37a1:	4c 63 d2             	movsxd r10,edx
        dotp = 10.0*b[i + 16*ldb] + 7.0*b[i + 30*ldb] + 25.0*b[i + 108*ldb];
    37a4:	c5 fb 10 bd 50 e8 ff 	vmovsd xmm7,QWORD PTR [rbp-0x17b0]
    37ab:	ff 
        c[i + 52*ldc] = dotp;
    37ac:	44 01 c2             	add    edx,r8d
        dotp = 31.0*b[i + 2*ldb] + 1.0*b[i + 16*ldb] + 26.0*b[i + 17*ldb] + 14.0*b[i + 32*ldb] + 27.0*b[i + 36*ldb] + 15.0*b[i + 52*ldb] + 16.0*b[i + 62*ldb] + 9.0*b[i + 114*ldb];
    37af:	c5 cb 58 f7          	vaddsd xmm6,xmm6,xmm7
        dotp = 16.0*b[i + 29*ldb] + 23.0*b[i + 45*ldb] + 14.0*b[i + 60*ldb] + 14.0*b[i + 76*ldb] + 8.0*b[i + 81*ldb];
    37b3:	62 41 fd 48 28 f9    	vmovapd zmm31,zmm9
    37b9:	c5 3b 59 8d 10 f4 ff 	vmulsd xmm9,xmm8,QWORD PTR [rbp-0xbf0]
    37c0:	ff 
    37c1:	62 61 ff 08 11 bd 50 	vmovsd QWORD PTR [rbp-0x19b0],xmm31
    37c8:	e6 ff ff 
    37cb:	62 41 af 00 58 d1    	vaddsd xmm26,xmm26,xmm9
    37d1:	62 71 f7 00 59 8d d0 	vmulsd xmm9,xmm17,QWORD PTR [rbp-0x930]
    37d8:	f6 ff ff 
    37db:	62 51 af 00 58 c9    	vaddsd xmm9,xmm26,xmm9
    37e1:	62 61 f7 00 59 95 50 	vmulsd xmm26,xmm17,QWORD PTR [rbp-0x7b0]
    37e8:	f8 ff ff 
    37eb:	62 11 b7 08 58 ca    	vaddsd xmm9,xmm9,xmm26
        dotp = 10.0*b[i + 16*ldb] + 7.0*b[i + 30*ldb] + 25.0*b[i + 108*ldb];
    37f1:	62 61 c7 00 59 d7    	vmulsd xmm26,xmm23,xmm7
        dotp = 16.0*b[i + 29*ldb] + 23.0*b[i + 45*ldb] + 14.0*b[i + 60*ldb] + 14.0*b[i + 76*ldb] + 8.0*b[i + 81*ldb];
    37f7:	62 11 b7 08 58 cf    	vaddsd xmm9,xmm9,xmm31
        dotp = 10.0*b[i + 16*ldb] + 7.0*b[i + 30*ldb] + 25.0*b[i + 108*ldb];
    37fd:	62 61 ff 08 10 bd 10 	vmovsd xmm31,QWORD PTR [rbp-0x8f0]
    3804:	f7 ff ff 
    3807:	62 61 ff 08 11 95 58 	vmovsd QWORD PTR [rbp-0x24a8],xmm26
    380e:	db ff ff 
        c[i + 51*ldc] = dotp;
    3811:	c4 21 7b 11 0c d1    	vmovsd QWORD PTR [rcx+r10*8],xmm9
        dotp = 10.0*b[i + 16*ldb] + 7.0*b[i + 30*ldb] + 25.0*b[i + 108*ldb];
    3817:	62 71 a7 00 59 8d 10 	vmulsd xmm9,xmm27,QWORD PTR [rbp-0x12f0]
    381e:	ed ff ff 
        c[i + 52*ldc] = dotp;
    3821:	4c 63 d2             	movsxd r10,edx
        c[i + 53*ldc] = dotp;
    3824:	44 01 c2             	add    edx,r8d
        dotp = 10.0*b[i + 16*ldb] + 7.0*b[i + 30*ldb] + 25.0*b[i + 108*ldb];
    3827:	62 11 b7 08 58 ca    	vaddsd xmm9,xmm9,xmm26
    382d:	62 61 87 00 59 55 ea 	vmulsd xmm26,xmm31,QWORD PTR [rbp-0xb0]
        dotp = 4.0*b[i + 2*ldb] + 3.0*b[i + 66*ldb] + 21.0*b[i + 73*ldb];
    3834:	62 61 ff 08 10 7d e2 	vmovsd xmm31,QWORD PTR [rbp-0xf0]
        dotp = 10.0*b[i + 16*ldb] + 7.0*b[i + 30*ldb] + 25.0*b[i + 108*ldb];
    383b:	62 11 b7 08 58 ca    	vaddsd xmm9,xmm9,xmm26
        dotp = 4.0*b[i + 2*ldb] + 3.0*b[i + 66*ldb] + 21.0*b[i + 73*ldb];
    3841:	62 61 9f 00 59 55 8a 	vmulsd xmm26,xmm28,QWORD PTR [rbp-0x3b0]
        c[i + 52*ldc] = dotp;
    3848:	c4 21 7b 11 0c d1    	vmovsd QWORD PTR [rcx+r10*8],xmm9
        dotp = 4.0*b[i + 2*ldb] + 3.0*b[i + 66*ldb] + 21.0*b[i + 73*ldb];
    384e:	c5 5b 59 8d 50 f0 ff 	vmulsd xmm9,xmm4,QWORD PTR [rbp-0xfb0]
    3855:	ff 
        c[i + 53*ldc] = dotp;
    3856:	4c 63 d2             	movsxd r10,edx
        c[i + 54*ldc] = dotp;
    3859:	44 01 c2             	add    edx,r8d
        dotp = 4.0*b[i + 2*ldb] + 3.0*b[i + 66*ldb] + 21.0*b[i + 73*ldb];
    385c:	62 61 ff 08 11 95 50 	vmovsd QWORD PTR [rbp-0x1fb0],xmm26
    3863:	e0 ff ff 
    3866:	62 61 87 00 59 95 10 	vmulsd xmm26,xmm31,QWORD PTR [rbp-0x1bf0]
    386d:	e4 ff ff 
        dotp = 2.0*b[i + 2*ldb] + 30.0*b[i + 5*ldb] + 7.0*b[i + 8*ldb] + 19.0*b[i + 13*ldb] + 9.0*b[i + 69*ldb] + 1.0*b[i + 96*ldb] + 2.0*b[i + 98*ldb] + 19.0*b[i + 123*ldb];
    3870:	62 61 a7 00 59 bd d0 	vmulsd xmm31,xmm27,QWORD PTR [rbp-0x1930]
    3877:	e6 ff ff 
        dotp = 4.0*b[i + 2*ldb] + 3.0*b[i + 66*ldb] + 21.0*b[i + 73*ldb];
    387a:	62 61 ff 08 11 95 90 	vmovsd QWORD PTR [rbp-0x1f70],xmm26
    3881:	e0 ff ff 
    3884:	62 61 af 00 58 95 50 	vaddsd xmm26,xmm26,QWORD PTR [rbp-0x1fb0]
    388b:	e0 ff ff 
    388e:	62 11 b7 08 58 ca    	vaddsd xmm9,xmm9,xmm26
        c[i + 53*ldc] = dotp;
    3894:	c4 21 7b 11 0c d1    	vmovsd QWORD PTR [rcx+r10*8],xmm9
        dotp = 2.0*b[i + 2*ldb] + 30.0*b[i + 5*ldb] + 7.0*b[i + 8*ldb] + 19.0*b[i + 13*ldb] + 9.0*b[i + 69*ldb] + 1.0*b[i + 96*ldb] + 2.0*b[i + 98*ldb] + 19.0*b[i + 123*ldb];
    389a:	c5 73 59 8d d0 e8 ff 	vmulsd xmm9,xmm1,QWORD PTR [rbp-0x1730]
    38a1:	ff 
        c[i + 54*ldc] = dotp;
    38a2:	4c 63 d2             	movsxd r10,edx
        c[i + 55*ldc] = dotp;
    38a5:	44 01 c2             	add    edx,r8d
        dotp = 2.0*b[i + 2*ldb] + 30.0*b[i + 5*ldb] + 7.0*b[i + 8*ldb] + 19.0*b[i + 13*ldb] + 9.0*b[i + 69*ldb] + 1.0*b[i + 96*ldb] + 2.0*b[i + 98*ldb] + 19.0*b[i + 123*ldb];
    38a8:	62 61 ff 08 10 55 8a 	vmovsd xmm26,QWORD PTR [rbp-0x3b0]
        dotp = 22.0*b[i + 15*ldb] + 27.0*b[i + 62*ldb] + 31.0*b[i + 76*ldb] + 22.0*b[i + 90*ldb] + 3.0*b[i + 97*ldb] + 6.0*b[i + 109*ldb];
    38af:	44 8b b5 64 dc ff ff 	mov    r14d,DWORD PTR [rbp-0x239c]
        dotp = 2.0*b[i + 2*ldb] + 30.0*b[i + 5*ldb] + 7.0*b[i + 8*ldb] + 19.0*b[i + 13*ldb] + 9.0*b[i + 69*ldb] + 1.0*b[i + 96*ldb] + 2.0*b[i + 98*ldb] + 19.0*b[i + 123*ldb];
    38b6:	62 01 af 00 58 d2    	vaddsd xmm26,xmm26,xmm26
    38bc:	62 11 b7 08 58 ca    	vaddsd xmm9,xmm9,xmm26
    38c2:	62 01 b7 08 58 d7    	vaddsd xmm26,xmm9,xmm31
    38c8:	c5 13 59 8d 10 fd ff 	vmulsd xmm9,xmm13,QWORD PTR [rbp-0x2f0]
    38cf:	ff 
    38d0:	62 51 af 00 58 c9    	vaddsd xmm9,xmm26,xmm9
    38d6:	62 61 df 00 59 95 10 	vmulsd xmm26,xmm20,QWORD PTR [rbp-0x5f0]
    38dd:	fa ff ff 
    38e0:	62 11 b7 08 58 ca    	vaddsd xmm9,xmm9,xmm26
    38e6:	62 61 ff 08 10 95 50 	vmovsd xmm26,QWORD PTR [rbp-0x18b0]
    38ed:	e7 ff ff 
    38f0:	62 01 af 00 58 d2    	vaddsd xmm26,xmm26,xmm26
    38f6:	c5 33 58 ca          	vaddsd xmm9,xmm9,xmm2
    38fa:	62 11 b7 08 58 ca    	vaddsd xmm9,xmm9,xmm26
    3900:	62 61 97 08 59 95 50 	vmulsd xmm26,xmm13,QWORD PTR [rbp-0x15b0]
    3907:	ea ff ff 
    390a:	62 11 b7 08 58 ca    	vaddsd xmm9,xmm9,xmm26
        dotp = 25.0*b[i + 41*ldb] + 30.0*b[i + 66*ldb] + 5.0*b[i + 76*ldb] + 6.0*b[i + 84*ldb] + 27.0*b[i + 87*ldb] + 2.0*b[i + 96*ldb] + 7.0*b[i + 102*ldb] + 6.0*b[i + 114*ldb];
    3910:	62 61 f7 08 59 95 10 	vmulsd xmm26,xmm1,QWORD PTR [rbp-0x1bf0]
    3917:	e4 ff ff 
        c[i + 54*ldc] = dotp;
    391a:	c4 21 7b 11 0c d1    	vmovsd QWORD PTR [rcx+r10*8],xmm9
        dotp = 25.0*b[i + 41*ldb] + 30.0*b[i + 66*ldb] + 5.0*b[i + 76*ldb] + 6.0*b[i + 84*ldb] + 27.0*b[i + 87*ldb] + 2.0*b[i + 96*ldb] + 7.0*b[i + 102*ldb] + 6.0*b[i + 114*ldb];
    3920:	62 71 bf 00 59 4d c2 	vmulsd xmm9,xmm24,QWORD PTR [rbp-0x1f0]
        c[i + 55*ldc] = dotp;
    3927:	4c 63 d2             	movsxd r10,edx
        c[i + 56*ldc] = dotp;
    392a:	44 01 c2             	add    edx,r8d
        dotp = 25.0*b[i + 41*ldb] + 30.0*b[i + 66*ldb] + 5.0*b[i + 76*ldb] + 6.0*b[i + 84*ldb] + 27.0*b[i + 87*ldb] + 2.0*b[i + 96*ldb] + 7.0*b[i + 102*ldb] + 6.0*b[i + 114*ldb];
    392d:	c5 7b 11 8d d0 e0 ff 	vmovsd QWORD PTR [rbp-0x1f30],xmm9
    3934:	ff 
    3935:	c5 7b 10 8d 50 ff ff 	vmovsd xmm9,QWORD PTR [rbp-0xb0]
    393c:	ff 
    393d:	c5 33 59 8d 90 f1 ff 	vmulsd xmm9,xmm9,QWORD PTR [rbp-0xe70]
    3944:	ff 
    3945:	62 41 af 00 58 d1    	vaddsd xmm26,xmm26,xmm9
    394b:	62 71 e7 00 59 8d 50 	vmulsd xmm9,xmm19,QWORD PTR [rbp-0x7b0]
    3952:	f8 ff ff 
    3955:	62 51 af 00 58 c9    	vaddsd xmm9,xmm26,xmm9
    395b:	62 61 9f 08 59 95 90 	vmulsd xmm26,xmm12,QWORD PTR [rbp-0x770]
    3962:	f8 ff ff 
    3965:	62 11 b7 08 58 ca    	vaddsd xmm9,xmm9,xmm26
    396b:	62 61 ef 08 58 d2    	vaddsd xmm26,xmm2,xmm2
    3971:	c5 33 58 8d d0 e0 ff 	vaddsd xmm9,xmm9,QWORD PTR [rbp-0x1f30]
    3978:	ff 
    3979:	62 01 b7 08 58 d2    	vaddsd xmm26,xmm9,xmm26
    397f:	62 71 a7 00 59 8d 90 	vmulsd xmm9,xmm27,QWORD PTR [rbp-0x1570]
    3986:	ea ff ff 
    3989:	62 51 af 00 58 c9    	vaddsd xmm9,xmm26,xmm9
    398f:	62 61 9f 08 59 95 10 	vmulsd xmm26,xmm12,QWORD PTR [rbp-0x6f0]
    3996:	f9 ff ff 
    3999:	62 11 b7 08 58 ca    	vaddsd xmm9,xmm9,xmm26
        dotp = 22.0*b[i + 15*ldb] + 27.0*b[i + 62*ldb] + 31.0*b[i + 76*ldb] + 22.0*b[i + 90*ldb] + 3.0*b[i + 97*ldb] + 6.0*b[i + 109*ldb];
    399f:	62 61 ff 08 10 55 d2 	vmovsd xmm26,QWORD PTR [rbp-0x170]
    39a6:	62 61 af 00 59 95 50 	vmulsd xmm26,xmm26,QWORD PTR [rbp-0x5b0]
    39ad:	fa ff ff 
        c[i + 55*ldc] = dotp;
    39b0:	c4 21 7b 11 0c d1    	vmovsd QWORD PTR [rcx+r10*8],xmm9
        dotp = 22.0*b[i + 15*ldb] + 27.0*b[i + 62*ldb] + 31.0*b[i + 76*ldb] + 22.0*b[i + 90*ldb] + 3.0*b[i + 97*ldb] + 6.0*b[i + 109*ldb];
    39b6:	45 8d 14 06          	lea    r10d,[r14+rax*1]
    39ba:	c5 7b 10 8d 50 f8 ff 	vmovsd xmm9,QWORD PTR [rbp-0x7b0]
    39c1:	ff 
    39c2:	c5 33 59 4d 90       	vmulsd xmm9,xmm9,QWORD PTR [rbp-0x70]
    39c7:	4d 63 d2             	movsxd r10,r10d
    39ca:	c5 7b 11 8d 10 e1 ff 	vmovsd QWORD PTR [rbp-0x1ef0],xmm9
    39d1:	ff 
    39d2:	c4 21 7b 10 0c d6    	vmovsd xmm9,QWORD PTR [rsi+r10*8]
        c[i + 56*ldc] = dotp;
    39d8:	4c 63 d2             	movsxd r10,edx
        c[i + 57*ldc] = dotp;
    39db:	44 01 c2             	add    edx,r8d
        dotp = 22.0*b[i + 15*ldb] + 27.0*b[i + 62*ldb] + 31.0*b[i + 76*ldb] + 22.0*b[i + 90*ldb] + 3.0*b[i + 97*ldb] + 6.0*b[i + 109*ldb];
    39de:	c5 7b 11 8d 90 ec ff 	vmovsd QWORD PTR [rbp-0x1370],xmm9
    39e5:	ff 
    39e6:	62 71 bf 00 59 8d 50 	vmulsd xmm9,xmm24,QWORD PTR [rbp-0x8b0]
    39ed:	f7 ff ff 
    39f0:	62 11 b7 08 58 ca    	vaddsd xmm9,xmm9,xmm26
    39f6:	c5 33 58 8d 10 e1 ff 	vaddsd xmm9,xmm9,QWORD PTR [rbp-0x1ef0]
    39fd:	ff 
    39fe:	62 61 ff 08 10 55 d2 	vmovsd xmm26,QWORD PTR [rbp-0x170]
    3a05:	62 61 af 00 59 95 d0 	vmulsd xmm26,xmm26,QWORD PTR [rbp-0xd30]
    3a0c:	f2 ff ff 
    3a0f:	62 01 b7 08 58 d2    	vaddsd xmm26,xmm9,xmm26
    3a15:	c5 7b 10 8d 10 ff ff 	vmovsd xmm9,QWORD PTR [rbp-0xf0]
    3a1c:	ff 
    3a1d:	c5 33 59 8d 10 ee ff 	vmulsd xmm9,xmm9,QWORD PTR [rbp-0x11f0]
    3a24:	ff 
    3a25:	62 51 af 00 58 c9    	vaddsd xmm9,xmm26,xmm9
    3a2b:	62 61 9f 08 59 95 90 	vmulsd xmm26,xmm12,QWORD PTR [rbp-0x1370]
    3a32:	ec ff ff 
    3a35:	62 11 b7 08 58 ca    	vaddsd xmm9,xmm9,xmm26
        c[i + 56*ldc] = dotp;
    3a3b:	c4 21 7b 11 0c d1    	vmovsd QWORD PTR [rcx+r10*8],xmm9
        dotp = 9.0*b[i + 2*ldb] + 4.0*b[i + 39*ldb] + 9.0*b[i + 50*ldb] + 23.0*b[i + 109*ldb];
    3a41:	c5 7b 59 8d 90 ec ff 	vmulsd xmm9,xmm0,QWORD PTR [rbp-0x1370]
    3a48:	ff 
        c[i + 57*ldc] = dotp;
    3a49:	4c 63 d2             	movsxd r10,edx
        c[i + 58*ldc] = dotp;
    3a4c:	44 01 c2             	add    edx,r8d
        dotp = 9.0*b[i + 2*ldb] + 4.0*b[i + 39*ldb] + 9.0*b[i + 50*ldb] + 23.0*b[i + 109*ldb];
    3a4f:	62 61 9f 00 59 95 90 	vmulsd xmm26,xmm28,QWORD PTR [rbp-0x1a70]
    3a56:	e5 ff ff 
    3a59:	c5 7b 11 8d 50 e1 ff 	vmovsd QWORD PTR [rbp-0x1eb0],xmm9
    3a60:	ff 
    3a61:	62 71 df 00 59 4d 8a 	vmulsd xmm9,xmm20,QWORD PTR [rbp-0x3b0]
    3a68:	62 51 af 00 58 c9    	vaddsd xmm9,xmm26,xmm9
    3a6e:	62 61 df 00 59 95 d0 	vmulsd xmm26,xmm20,QWORD PTR [rbp-0x1430]
    3a75:	eb ff ff 
    3a78:	62 11 b7 08 58 ca    	vaddsd xmm9,xmm9,xmm26
    3a7e:	c5 33 58 8d 50 e1 ff 	vaddsd xmm9,xmm9,QWORD PTR [rbp-0x1eb0]
    3a85:	ff 
        dotp = 15.0*b[i + 33*ldb] + 31.0*b[i + 43*ldb] + 14.0*b[i + 73*ldb] + 11.0*b[i + 90*ldb] + 1.0*b[i + 119*ldb];
    3a86:	62 61 ff 08 10 55 f2 	vmovsd xmm26,QWORD PTR [rbp-0x70]
    3a8d:	62 21 af 00 59 d6    	vmulsd xmm26,xmm26,xmm22
        dotp = 16.0*b[i + 27*ldb] + 20.0*b[i + 56*ldb] + 26.0*b[i + 79*ldb] + 17.0*b[i + 109*ldb] + 28.0*b[i + 112*ldb];
    3a93:	62 e1 ff 08 10 b5 90 	vmovsd xmm22,QWORD PTR [rbp-0x1370]
    3a9a:	ec ff ff 
        c[i + 57*ldc] = dotp;
    3a9d:	c4 21 7b 11 0c d1    	vmovsd QWORD PTR [rcx+r10*8],xmm9
        dotp = 15.0*b[i + 33*ldb] + 31.0*b[i + 43*ldb] + 14.0*b[i + 73*ldb] + 11.0*b[i + 90*ldb] + 1.0*b[i + 119*ldb];
    3aa3:	c5 03 59 8d d0 f2 ff 	vmulsd xmm9,xmm15,QWORD PTR [rbp-0xd30]
    3aaa:	ff 
        c[i + 58*ldc] = dotp;
    3aab:	4c 63 d2             	movsxd r10,edx
        c[i + 59*ldc] = dotp;
    3aae:	44 01 c2             	add    edx,r8d
        dotp = 15.0*b[i + 33*ldb] + 31.0*b[i + 43*ldb] + 14.0*b[i + 73*ldb] + 11.0*b[i + 90*ldb] + 1.0*b[i + 119*ldb];
    3ab1:	c5 7b 11 8d 90 e1 ff 	vmovsd QWORD PTR [rbp-0x1e70],xmm9
    3ab8:	ff 
    3ab9:	62 71 ff 00 59 8d 10 	vmulsd xmm9,xmm16,QWORD PTR [rbp-0x15f0]
    3ac0:	ea ff ff 
    3ac3:	62 51 af 00 58 c9    	vaddsd xmm9,xmm26,xmm9
    3ac9:	62 61 f7 00 59 95 50 	vmulsd xmm26,xmm17,QWORD PTR [rbp-0xfb0]
    3ad0:	f0 ff ff 
    3ad3:	62 11 b7 08 58 ca    	vaddsd xmm9,xmm9,xmm26
    3ad9:	c5 33 58 8d 90 e1 ff 	vaddsd xmm9,xmm9,QWORD PTR [rbp-0x1e70]
    3ae0:	ff 
        dotp = 16.0*b[i + 27*ldb] + 20.0*b[i + 56*ldb] + 26.0*b[i + 79*ldb] + 17.0*b[i + 109*ldb] + 28.0*b[i + 112*ldb];
    3ae1:	62 61 ff 08 10 55 ca 	vmovsd xmm26,QWORD PTR [rbp-0x1b0]
        dotp = 15.0*b[i + 33*ldb] + 31.0*b[i + 43*ldb] + 14.0*b[i + 73*ldb] + 11.0*b[i + 90*ldb] + 1.0*b[i + 119*ldb];
    3ae8:	c5 33 58 8d 50 fd ff 	vaddsd xmm9,xmm9,QWORD PTR [rbp-0x2b0]
    3aef:	ff 
        c[i + 58*ldc] = dotp;
    3af0:	c4 21 7b 11 0c d1    	vmovsd QWORD PTR [rcx+r10*8],xmm9
        dotp = 10.0*b[i + 25*ldb] + 13.0*b[i + 46*ldb] + 15.0*b[i + 57*ldb] + 28.0*b[i + 74*ldb];
    3af6:	62 71 c7 00 59 8d 10 	vmulsd xmm9,xmm23,QWORD PTR [rbp-0x16f0]
    3afd:	e9 ff ff 
        c[i + 59*ldc] = dotp;
    3b00:	4c 63 d2             	movsxd r10,edx
        c[i + 60*ldc] = dotp;
    3b03:	44 01 c2             	add    edx,r8d
        dotp = 10.0*b[i + 25*ldb] + 13.0*b[i + 46*ldb] + 15.0*b[i + 57*ldb] + 28.0*b[i + 74*ldb];
    3b06:	62 51 d7 00 58 c9    	vaddsd xmm9,xmm21,xmm9
    3b0c:	62 e1 ff 00 59 6d 9a 	vmulsd xmm21,xmm16,QWORD PTR [rbp-0x330]
    3b13:	62 a1 b7 08 58 ed    	vaddsd xmm21,xmm9,xmm21
    3b19:	c5 2b 59 8d d0 e1 ff 	vmulsd xmm9,xmm10,QWORD PTR [rbp-0x1e30]
    3b20:	ff 
    3b21:	62 c1 d7 00 58 e9    	vaddsd xmm21,xmm21,xmm9
        c[i + 59*ldc] = dotp;
    3b27:	62 a1 ff 08 11 2c d1 	vmovsd QWORD PTR [rcx+r10*8],xmm21
        dotp = 16.0*b[i + 27*ldb] + 20.0*b[i + 56*ldb] + 26.0*b[i + 79*ldb] + 17.0*b[i + 109*ldb] + 28.0*b[i + 112*ldb];
    3b2e:	62 e1 97 00 59 ad 50 	vmulsd xmm21,xmm29,QWORD PTR [rbp-0x1bb0]
    3b35:	e4 ff ff 
        c[i + 60*ldc] = dotp;
    3b38:	4c 63 d2             	movsxd r10,edx
        c[i + 61*ldc] = dotp;
    3b3b:	44 01 c2             	add    edx,r8d
        dotp = 16.0*b[i + 27*ldb] + 20.0*b[i + 56*ldb] + 26.0*b[i + 79*ldb] + 17.0*b[i + 109*ldb] + 28.0*b[i + 112*ldb];
    3b3e:	62 31 fd 48 28 cd    	vmovapd zmm9,zmm21
    3b44:	62 e1 bf 08 59 ad d0 	vmulsd xmm21,xmm8,QWORD PTR [rbp-0x1630]
    3b4b:	e9 ff ff 
    3b4e:	c5 7b 11 8d 60 db ff 	vmovsd QWORD PTR [rbp-0x24a0],xmm9
    3b55:	ff 
    3b56:	62 c1 d7 00 58 e9    	vaddsd xmm21,xmm21,xmm9
    3b5c:	62 11 e7 08 59 ca    	vmulsd xmm9,xmm3,xmm26
    3b62:	62 c1 d7 00 58 e9    	vaddsd xmm21,xmm21,xmm9
    3b68:	62 71 cf 00 59 4d da 	vmulsd xmm9,xmm22,QWORD PTR [rbp-0x130]
    3b6f:	62 51 d7 00 58 c9    	vaddsd xmm9,xmm21,xmm9
    3b75:	62 e1 af 08 59 ad 90 	vmulsd xmm21,xmm10,QWORD PTR [rbp-0x1270]
    3b7c:	ed ff ff 
    3b7f:	62 31 b7 08 58 cd    	vaddsd xmm9,xmm9,xmm21
        dotp = 14.0*b[i + 41*ldb] + 5.0*b[i + 45*ldb] + 7.0*b[i + 52*ldb] + 20.0*b[i + 79*ldb];
    3b85:	62 81 97 00 59 ea    	vmulsd xmm21,xmm29,xmm26
    3b8b:	62 61 ff 08 10 95 10 	vmovsd xmm26,QWORD PTR [rbp-0x7f0]
    3b92:	f8 ff ff 
        c[i + 60*ldc] = dotp;
    3b95:	c4 21 7b 11 0c d1    	vmovsd QWORD PTR [rcx+r10*8],xmm9
        dotp = 14.0*b[i + 41*ldb] + 5.0*b[i + 45*ldb] + 7.0*b[i + 52*ldb] + 20.0*b[i + 79*ldb];
    3b9b:	62 71 f7 00 59 8d 90 	vmulsd xmm9,xmm17,QWORD PTR [rbp-0xe70]
    3ba2:	f1 ff ff 
        c[i + 61*ldc] = dotp;
    3ba5:	4c 63 d2             	movsxd r10,edx
        c[i + 62*ldc] = dotp;
    3ba8:	44 01 c2             	add    edx,r8d
        dotp = 14.0*b[i + 41*ldb] + 5.0*b[i + 45*ldb] + 7.0*b[i + 52*ldb] + 20.0*b[i + 79*ldb];
    3bab:	62 a1 fd 48 28 f5    	vmovapd zmm22,zmm21
    3bb1:	62 e1 e7 00 59 ad 90 	vmulsd xmm21,xmm19,QWORD PTR [rbp-0xa70]
    3bb8:	f5 ff ff 
    3bbb:	62 e1 ff 08 11 b5 40 	vmovsd QWORD PTR [rbp-0x22c0],xmm22
    3bc2:	dd ff ff 
    3bc5:	62 51 d7 00 58 c9    	vaddsd xmm9,xmm21,xmm9
    3bcb:	62 81 a7 00 59 ea    	vmulsd xmm21,xmm27,xmm26
    3bd1:	62 31 b7 08 58 cd    	vaddsd xmm9,xmm9,xmm21
    3bd7:	62 31 b7 08 58 ce    	vaddsd xmm9,xmm9,xmm22
        dotp = 31.0*b[i + 2*ldb] + 1.0*b[i + 16*ldb] + 26.0*b[i + 17*ldb] + 14.0*b[i + 32*ldb] + 27.0*b[i + 36*ldb] + 15.0*b[i + 52*ldb] + 16.0*b[i + 62*ldb] + 9.0*b[i + 114*ldb];
    3bdd:	62 e1 fd 48 28 f7    	vmovapd zmm22,zmm7
        c[i + 61*ldc] = dotp;
    3be3:	c4 21 7b 11 0c d1    	vmovsd QWORD PTR [rcx+r10*8],xmm9
        dotp = 31.0*b[i + 2*ldb] + 1.0*b[i + 16*ldb] + 26.0*b[i + 17*ldb] + 14.0*b[i + 32*ldb] + 27.0*b[i + 36*ldb] + 15.0*b[i + 52*ldb] + 16.0*b[i + 62*ldb] + 9.0*b[i + 114*ldb];
    3be9:	c5 63 59 8d 90 fc ff 	vmulsd xmm9,xmm3,QWORD PTR [rbp-0x370]
    3bf0:	ff 
        c[i + 62*ldc] = dotp;
    3bf1:	4c 63 d2             	movsxd r10,edx
        c[i + 63*ldc] = dotp;
    3bf4:	44 01 c2             	add    edx,r8d
        dotp = 24.0*b[i + 40*ldb] + 24.0*b[i + 42*ldb] + 10.0*b[i + 44*ldb] + 26.0*b[i + 47*ldb] + 4.0*b[i + 71*ldb] + 5.0*b[i + 98*ldb];
    3bf7:	62 e1 b7 00 59 ad d0 	vmulsd xmm21,xmm25,QWORD PTR [rbp-0xf30]
    3bfe:	f0 ff ff 
        dotp = 6.0*b[i + 6*ldb] + 14.0*b[i + 10*ldb] + 14.0*b[i + 16*ldb] + 10.0*b[i + 59*ldb] + 5.0*b[i + 75*ldb] + 3.0*b[i + 79*ldb] + 26.0*b[i + 83*ldb] + 16.0*b[i + 84*ldb] + 7.0*b[i + 99*ldb] + 6.0*b[i + 107*ldb] + 30.0*b[i + 119*ldb];
    3c01:	44 8b b5 08 dc ff ff 	mov    r14d,DWORD PTR [rbp-0x23f8]
        dotp = 24.0*b[i + 40*ldb] + 24.0*b[i + 42*ldb] + 10.0*b[i + 44*ldb] + 26.0*b[i + 47*ldb] + 4.0*b[i + 71*ldb] + 5.0*b[i + 98*ldb];
    3c08:	c5 fb 10 bd d0 ec ff 	vmovsd xmm7,QWORD PTR [rbp-0x1330]
    3c0f:	ff 
        dotp = 31.0*b[i + 2*ldb] + 1.0*b[i + 16*ldb] + 26.0*b[i + 17*ldb] + 14.0*b[i + 32*ldb] + 27.0*b[i + 36*ldb] + 15.0*b[i + 52*ldb] + 16.0*b[i + 62*ldb] + 9.0*b[i + 114*ldb];
    3c10:	c5 b3 58 f6          	vaddsd xmm6,xmm9,xmm6
    3c14:	62 71 f7 00 59 8d 90 	vmulsd xmm9,xmm17,QWORD PTR [rbp-0x570]
    3c1b:	fa ff ff 
    3c1e:	c4 c1 4b 58 f1       	vaddsd xmm6,xmm6,xmm9
    3c23:	62 11 ff 00 59 ca    	vmulsd xmm9,xmm16,xmm26
    3c29:	c5 cb 58 b5 68 dd ff 	vaddsd xmm6,xmm6,QWORD PTR [rbp-0x2298]
    3c30:	ff 
    3c31:	c4 41 4b 58 c9       	vaddsd xmm9,xmm6,xmm9
    3c36:	c5 bb 59 b5 50 f7 ff 	vmulsd xmm6,xmm8,QWORD PTR [rbp-0x8b0]
    3c3d:	ff 
    3c3e:	c5 b3 58 f6          	vaddsd xmm6,xmm9,xmm6
    3c42:	62 71 df 00 59 8d 10 	vmulsd xmm9,xmm20,QWORD PTR [rbp-0x6f0]
    3c49:	f9 ff ff 
    3c4c:	c4 c1 4b 58 f1       	vaddsd xmm6,xmm6,xmm9
        c[i + 62*ldc] = dotp;
    3c51:	c4 a1 7b 11 34 d1    	vmovsd QWORD PTR [rcx+r10*8],xmm6
        dotp = 24.0*b[i + 40*ldb] + 24.0*b[i + 42*ldb] + 10.0*b[i + 44*ldb] + 26.0*b[i + 47*ldb] + 4.0*b[i + 71*ldb] + 5.0*b[i + 98*ldb];
    3c57:	62 f1 b7 00 59 b5 28 	vmulsd xmm6,xmm25,QWORD PTR [rbp-0x1ad8]
    3c5e:	e5 ff ff 
    3c61:	44 8b 95 60 dc ff ff 	mov    r10d,DWORD PTR [rbp-0x23a0]
    3c68:	41 01 c2             	add    r10d,eax
    3c6b:	4d 63 d2             	movsxd r10,r10d
    3c6e:	c4 21 7b 10 0c d6    	vmovsd xmm9,QWORD PTR [rsi+r10*8]
        c[i + 63*ldc] = dotp;
    3c74:	4c 63 d2             	movsxd r10,edx
        c[i + 64*ldc] = dotp;
    3c77:	44 01 c2             	add    edx,r8d
        dotp = 24.0*b[i + 40*ldb] + 24.0*b[i + 42*ldb] + 10.0*b[i + 44*ldb] + 26.0*b[i + 47*ldb] + 4.0*b[i + 71*ldb] + 5.0*b[i + 98*ldb];
    3c7a:	62 b1 cf 08 58 f5    	vaddsd xmm6,xmm6,xmm21
    3c80:	62 e1 c7 00 59 ef    	vmulsd xmm21,xmm23,xmm7
    3c86:	62 a1 cf 08 58 ed    	vaddsd xmm21,xmm6,xmm21
    3c8c:	c5 e3 59 b5 50 fb ff 	vmulsd xmm6,xmm3,QWORD PTR [rbp-0x4b0]
    3c93:	ff 
    3c94:	62 e1 d7 00 58 ee    	vaddsd xmm21,xmm21,xmm6
    3c9a:	62 91 b7 08 59 f4    	vmulsd xmm6,xmm9,xmm28
    3ca0:	62 f1 d7 00 58 f6    	vaddsd xmm6,xmm21,xmm6
    3ca6:	62 e1 e7 00 59 ad 50 	vmulsd xmm21,xmm19,QWORD PTR [rbp-0x18b0]
    3cad:	e7 ff ff 
    3cb0:	62 b1 cf 08 58 f5    	vaddsd xmm6,xmm6,xmm21
        c[i + 63*ldc] = dotp;
    3cb6:	c4 a1 7b 11 34 d1    	vmovsd QWORD PTR [rcx+r10*8],xmm6
        dotp = 6.0*b[i + 6*ldb] + 14.0*b[i + 10*ldb] + 14.0*b[i + 16*ldb] + 10.0*b[i + 59*ldb] + 5.0*b[i + 75*ldb] + 3.0*b[i + 79*ldb] + 26.0*b[i + 83*ldb] + 16.0*b[i + 84*ldb] + 7.0*b[i + 99*ldb] + 6.0*b[i + 107*ldb] + 30.0*b[i + 119*ldb];
    3cbc:	45 8d 14 06          	lea    r10d,[r14+rax*1]
    3cc0:	c5 9b 59 b5 90 de ff 	vmulsd xmm6,xmm12,QWORD PTR [rbp-0x2170]
    3cc7:	ff 
    3cc8:	4d 63 d2             	movsxd r10,r10d
    3ccb:	62 a1 ff 08 10 2c d6 	vmovsd xmm21,QWORD PTR [rsi+r10*8]
        c[i + 64*ldc] = dotp;
    3cd2:	4c 63 d2             	movsxd r10,edx
        c[i + 65*ldc] = dotp;
    3cd5:	44 01 c2             	add    edx,r8d
        dotp = 6.0*b[i + 6*ldb] + 14.0*b[i + 10*ldb] + 14.0*b[i + 16*ldb] + 10.0*b[i + 59*ldb] + 5.0*b[i + 75*ldb] + 3.0*b[i + 79*ldb] + 26.0*b[i + 83*ldb] + 16.0*b[i + 84*ldb] + 7.0*b[i + 99*ldb] + 6.0*b[i + 107*ldb] + 30.0*b[i + 119*ldb];
    3cd8:	62 21 fd 48 28 d5    	vmovapd zmm26,zmm21
    3cde:	62 61 ff 08 11 95 d0 	vmovsd QWORD PTR [rbp-0x1330],xmm26
    3ce5:	ec ff ff 
    3ce8:	62 01 f7 00 59 d2    	vmulsd xmm26,xmm17,xmm26
    3cee:	62 e1 e7 08 59 ad 50 	vmulsd xmm21,xmm3,QWORD PTR [rbp-0xcb0]
    3cf5:	f3 ff ff 
    3cf8:	62 f1 af 00 58 f6    	vaddsd xmm6,xmm26,xmm6
    3cfe:	62 21 f7 00 59 d6    	vmulsd xmm26,xmm17,xmm22
    3d04:	62 e1 ff 08 10 75 ca 	vmovsd xmm22,QWORD PTR [rbp-0x1b0]
    3d0b:	62 e1 ff 08 11 ad d0 	vmovsd QWORD PTR [rbp-0x1e30],xmm21
    3d12:	e1 ff ff 
    3d15:	62 e1 a7 00 59 ad 20 	vmulsd xmm21,xmm27,QWORD PTR [rbp-0x1ae0]
    3d1c:	e5 ff ff 
    3d1f:	62 01 cf 08 58 d2    	vaddsd xmm26,xmm6,xmm26
    3d25:	62 f1 c7 00 59 75 ba 	vmulsd xmm6,xmm23,QWORD PTR [rbp-0x230]
    3d2c:	62 61 af 00 58 d6    	vaddsd xmm26,xmm26,xmm6
    3d32:	62 f1 e7 00 59 b5 10 	vmulsd xmm6,xmm19,QWORD PTR [rbp-0x13f0]
    3d39:	ec ff ff 
    3d3c:	62 f1 af 00 58 f6    	vaddsd xmm6,xmm26,xmm6
    3d42:	62 61 cf 00 59 55 e2 	vmulsd xmm26,xmm22,QWORD PTR [rbp-0xf0]
        dotp = 19.0*b[i + 2*ldb] + 22.0*b[i + 59*ldb] + 1.0*b[i + 65*ldb] + 18.0*b[i + 114*ldb];
    3d49:	62 e1 ff 08 10 75 ba 	vmovsd xmm22,QWORD PTR [rbp-0x230]
        dotp = 6.0*b[i + 6*ldb] + 14.0*b[i + 10*ldb] + 14.0*b[i + 16*ldb] + 10.0*b[i + 59*ldb] + 5.0*b[i + 75*ldb] + 3.0*b[i + 79*ldb] + 26.0*b[i + 83*ldb] + 16.0*b[i + 84*ldb] + 7.0*b[i + 99*ldb] + 6.0*b[i + 107*ldb] + 30.0*b[i + 119*ldb];
    3d50:	62 91 cf 08 58 f2    	vaddsd xmm6,xmm6,xmm26
    3d56:	62 61 bf 08 59 95 90 	vmulsd xmm26,xmm8,QWORD PTR [rbp-0x770]
    3d5d:	f8 ff ff 
    3d60:	c5 cb 58 b5 d0 e1 ff 	vaddsd xmm6,xmm6,QWORD PTR [rbp-0x1e30]
    3d67:	ff 
    3d68:	62 91 cf 08 58 f2    	vaddsd xmm6,xmm6,xmm26
    3d6e:	62 61 9f 08 59 95 10 	vmulsd xmm26,xmm12,QWORD PTR [rbp-0x4f0]
    3d75:	fb ff ff 
    3d78:	62 b1 cf 08 58 f5    	vaddsd xmm6,xmm6,xmm21
    3d7e:	62 91 cf 08 58 f2    	vaddsd xmm6,xmm6,xmm26
    3d84:	62 61 f7 08 59 55 aa 	vmulsd xmm26,xmm1,QWORD PTR [rbp-0x2b0]
    3d8b:	62 91 cf 08 58 f2    	vaddsd xmm6,xmm6,xmm26
        c[i + 64*ldc] = dotp;
    3d91:	c4 a1 7b 11 34 d1    	vmovsd QWORD PTR [rcx+r10*8],xmm6
        dotp = 19.0*b[i + 2*ldb] + 22.0*b[i + 59*ldb] + 1.0*b[i + 65*ldb] + 18.0*b[i + 114*ldb];
    3d97:	62 f1 cf 00 59 75 d2 	vmulsd xmm6,xmm22,QWORD PTR [rbp-0x170]
        c[i + 65*ldc] = dotp;
    3d9e:	4c 63 d2             	movsxd r10,edx
        c[i + 66*ldc] = dotp;
    3da1:	44 01 c2             	add    edx,r8d
        dotp = 19.0*b[i + 2*ldb] + 22.0*b[i + 59*ldb] + 1.0*b[i + 65*ldb] + 18.0*b[i + 114*ldb];
    3da4:	62 61 97 08 59 55 8a 	vmulsd xmm26,xmm13,QWORD PTR [rbp-0x3b0]
    3dab:	62 91 cf 08 58 f2    	vaddsd xmm6,xmm6,xmm26
    3db1:	62 61 ef 00 59 95 10 	vmulsd xmm26,xmm18,QWORD PTR [rbp-0x6f0]
    3db8:	f9 ff ff 
    3dbb:	c5 cb 58 b5 50 eb ff 	vaddsd xmm6,xmm6,QWORD PTR [rbp-0x14b0]
    3dc2:	ff 
    3dc3:	62 91 cf 08 58 f2    	vaddsd xmm6,xmm6,xmm26
        dotp = 1.0*b[i + 44*ldb] + 29.0*b[i + 45*ldb] + 3.0*b[i + 66*ldb] + 1.0*b[i + 85*ldb] + 27.0*b[i + 119*ldb];
    3dc9:	62 61 bf 00 59 55 aa 	vmulsd xmm26,xmm24,QWORD PTR [rbp-0x2b0]
        c[i + 65*ldc] = dotp;
    3dd0:	c4 a1 7b 11 34 d1    	vmovsd QWORD PTR [rcx+r10*8],xmm6
        dotp = 1.0*b[i + 44*ldb] + 29.0*b[i + 45*ldb] + 3.0*b[i + 66*ldb] + 1.0*b[i + 85*ldb] + 27.0*b[i + 119*ldb];
    3dd6:	c5 8b 59 b5 90 f5 ff 	vmulsd xmm6,xmm14,QWORD PTR [rbp-0xa70]
    3ddd:	ff 
        c[i + 66*ldc] = dotp;
    3dde:	4c 63 d2             	movsxd r10,edx
        c[i + 67*ldc] = dotp;
    3de1:	44 01 c2             	add    edx,r8d
        dotp = 1.0*b[i + 44*ldb] + 29.0*b[i + 45*ldb] + 3.0*b[i + 66*ldb] + 1.0*b[i + 85*ldb] + 27.0*b[i + 119*ldb];
    3de4:	c5 cb 58 f7          	vaddsd xmm6,xmm6,xmm7
    3de8:	c5 cb 58 b5 90 e0 ff 	vaddsd xmm6,xmm6,QWORD PTR [rbp-0x1f70]
    3def:	ff 
        dotp = 23.0*b[i + 11*ldb] + 7.0*b[i + 15*ldb] + 9.0*b[i + 31*ldb] + 20.0*b[i + 43*ldb] + 12.0*b[i + 75*ldb] + 29.0*b[i + 115*ldb];
    3df0:	c5 fb 10 bd 10 f1 ff 	vmovsd xmm7,QWORD PTR [rbp-0xef0]
    3df7:	ff 
        dotp = 1.0*b[i + 44*ldb] + 29.0*b[i + 45*ldb] + 3.0*b[i + 66*ldb] + 1.0*b[i + 85*ldb] + 27.0*b[i + 119*ldb];
    3df8:	c5 cb 58 b5 50 f1 ff 	vaddsd xmm6,xmm6,QWORD PTR [rbp-0xeb0]
    3dff:	ff 
    3e00:	62 91 cf 08 58 f2    	vaddsd xmm6,xmm6,xmm26
        dotp = 23.0*b[i + 11*ldb] + 7.0*b[i + 15*ldb] + 9.0*b[i + 31*ldb] + 20.0*b[i + 43*ldb] + 12.0*b[i + 75*ldb] + 29.0*b[i + 115*ldb];
    3e06:	62 61 ff 08 59 d7    	vmulsd xmm26,xmm0,xmm7
        c[i + 66*ldc] = dotp;
    3e0c:	c4 a1 7b 11 34 d1    	vmovsd QWORD PTR [rcx+r10*8],xmm6
        dotp = 23.0*b[i + 11*ldb] + 7.0*b[i + 15*ldb] + 9.0*b[i + 31*ldb] + 20.0*b[i + 43*ldb] + 12.0*b[i + 75*ldb] + 29.0*b[i + 115*ldb];
    3e12:	62 f1 a7 00 59 b5 50 	vmulsd xmm6,xmm27,QWORD PTR [rbp-0x5b0]
    3e19:	fa ff ff 
        c[i + 67*ldc] = dotp;
    3e1c:	4c 63 d2             	movsxd r10,edx
        c[i + 68*ldc] = dotp;
    3e1f:	44 01 c2             	add    edx,r8d
        dotp = 23.0*b[i + 11*ldb] + 7.0*b[i + 15*ldb] + 9.0*b[i + 31*ldb] + 20.0*b[i + 43*ldb] + 12.0*b[i + 75*ldb] + 29.0*b[i + 115*ldb];
    3e22:	62 91 cf 08 58 f2    	vaddsd xmm6,xmm6,xmm26
    3e28:	62 61 97 00 59 55 b2 	vmulsd xmm26,xmm29,QWORD PTR [rbp-0x270]
    3e2f:	c5 cb 58 b5 10 e2 ff 	vaddsd xmm6,xmm6,QWORD PTR [rbp-0x1df0]
    3e36:	ff 
    3e37:	62 01 cf 08 58 d2    	vaddsd xmm26,xmm6,xmm26
    3e3d:	c5 a3 59 b5 10 ec ff 	vmulsd xmm6,xmm11,QWORD PTR [rbp-0x13f0]
    3e44:	ff 
    3e45:	62 f1 af 00 58 f6    	vaddsd xmm6,xmm26,xmm6
    3e4b:	62 61 8f 08 59 95 90 	vmulsd xmm26,xmm14,QWORD PTR [rbp-0x970]
    3e52:	f6 ff ff 
    3e55:	62 91 cf 08 58 f2    	vaddsd xmm6,xmm6,xmm26
        dotp = 19.0*b[i + 11*ldb] + 28.0*b[i + 27*ldb] + 25.0*b[i + 83*ldb] + 8.0*b[i + 107*ldb] + 26.0*b[i + 119*ldb] + 29.0*b[i + 126*ldb];
    3e5b:	62 61 97 08 59 d7    	vmulsd xmm26,xmm13,xmm7
        c[i + 67*ldc] = dotp;
    3e61:	c4 a1 7b 11 34 d1    	vmovsd QWORD PTR [rcx+r10*8],xmm6
        dotp = 19.0*b[i + 11*ldb] + 28.0*b[i + 27*ldb] + 25.0*b[i + 83*ldb] + 8.0*b[i + 107*ldb] + 26.0*b[i + 119*ldb] + 29.0*b[i + 126*ldb];
    3e67:	c5 ab 59 b5 d0 e9 ff 	vmulsd xmm6,xmm10,QWORD PTR [rbp-0x1630]
    3e6e:	ff 
        c[i + 68*ldc] = dotp;
    3e6f:	4c 63 d2             	movsxd r10,edx
        c[i + 69*ldc] = dotp;
    3e72:	44 01 c2             	add    edx,r8d
        dotp = 19.0*b[i + 11*ldb] + 28.0*b[i + 27*ldb] + 25.0*b[i + 83*ldb] + 8.0*b[i + 107*ldb] + 26.0*b[i + 119*ldb] + 29.0*b[i + 126*ldb];
    3e75:	62 e1 fd 48 28 f6    	vmovapd zmm22,zmm6
    3e7b:	62 e1 ff 08 11 b5 90 	vmovsd QWORD PTR [rbp-0x2170],xmm22
    3e82:	de ff ff 
    3e85:	62 b1 af 00 58 f6    	vaddsd xmm6,xmm26,xmm22
    3e8b:	62 e1 ff 08 10 b5 50 	vmovsd xmm22,QWORD PTR [rbp-0xcb0]
    3e92:	f3 ff ff 
    3e95:	62 61 cf 00 59 55 ea 	vmulsd xmm26,xmm22,QWORD PTR [rbp-0xb0]
    3e9c:	62 01 cf 08 58 d2    	vaddsd xmm26,xmm6,xmm26
    3ea2:	c5 d3 59 b5 10 fb ff 	vmulsd xmm6,xmm5,QWORD PTR [rbp-0x4f0]
    3ea9:	ff 
    3eaa:	62 61 af 00 58 d6    	vaddsd xmm26,xmm26,xmm6
    3eb0:	c5 e3 59 b5 50 fd ff 	vmulsd xmm6,xmm3,QWORD PTR [rbp-0x2b0]
    3eb7:	ff 
    3eb8:	62 f1 af 00 58 f6    	vaddsd xmm6,xmm26,xmm6
    3ebe:	62 61 8f 08 59 95 d0 	vmulsd xmm26,xmm14,QWORD PTR [rbp-0x830]
    3ec5:	f7 ff ff 
    3ec8:	62 91 cf 08 58 f2    	vaddsd xmm6,xmm6,xmm26
        dotp = 19.0*b[i + 5*ldb] + 7.0*b[i + 53*ldb] + 7.0*b[i + 83*ldb] + 13.0*b[i + 112*ldb];
    3ece:	62 61 a7 00 59 95 d0 	vmulsd xmm26,xmm27,QWORD PTR [rbp-0xe30]
    3ed5:	f1 ff ff 
        c[i + 68*ldc] = dotp;
    3ed8:	c4 a1 7b 11 34 d1    	vmovsd QWORD PTR [rcx+r10*8],xmm6
        dotp = 19.0*b[i + 5*ldb] + 7.0*b[i + 53*ldb] + 7.0*b[i + 83*ldb] + 13.0*b[i + 112*ldb];
    3ede:	c5 93 59 b5 d0 e8 ff 	vmulsd xmm6,xmm13,QWORD PTR [rbp-0x1730]
    3ee5:	ff 
        c[i + 69*ldc] = dotp;
    3ee6:	4c 63 d2             	movsxd r10,edx
        c[i + 70*ldc] = dotp;
    3ee9:	44 01 c2             	add    edx,r8d
        dotp = 19.0*b[i + 5*ldb] + 7.0*b[i + 53*ldb] + 7.0*b[i + 83*ldb] + 13.0*b[i + 112*ldb];
    3eec:	62 f1 af 00 58 f6    	vaddsd xmm6,xmm26,xmm6
    3ef2:	62 21 a7 00 59 d6    	vmulsd xmm26,xmm27,xmm22
    3ef8:	62 91 cf 08 58 f2    	vaddsd xmm6,xmm6,xmm26
    3efe:	c5 cb 58 b5 50 e2 ff 	vaddsd xmm6,xmm6,QWORD PTR [rbp-0x1db0]
    3f05:	ff 
        dotp = 3.0*b[i + 32*ldb] + 30.0*b[i + 76*ldb] + 12.0*b[i + 77*ldb] + 19.0*b[i + 87*ldb] + 7.0*b[i + 99*ldb] + 12.0*b[i + 117*ldb];
    3f06:	62 61 ff 08 10 95 50 	vmovsd xmm26,QWORD PTR [rbp-0x7b0]
    3f0d:	f8 ff ff 
    3f10:	62 81 f7 08 59 f2    	vmulsd xmm22,xmm1,xmm26
        c[i + 69*ldc] = dotp;
    3f16:	c4 a1 7b 11 34 d1    	vmovsd QWORD PTR [rcx+r10*8],xmm6
        dotp = 3.0*b[i + 32*ldb] + 30.0*b[i + 76*ldb] + 12.0*b[i + 77*ldb] + 19.0*b[i + 87*ldb] + 7.0*b[i + 99*ldb] + 12.0*b[i + 117*ldb];
    3f1c:	c5 a3 59 b5 10 fc ff 	vmulsd xmm6,xmm11,QWORD PTR [rbp-0x3f0]
    3f23:	ff 
        c[i + 70*ldc] = dotp;
    3f24:	4c 63 d2             	movsxd r10,edx
        c[i + 71*ldc] = dotp;
    3f27:	44 01 c2             	add    edx,r8d
        dotp = 3.0*b[i + 32*ldb] + 30.0*b[i + 76*ldb] + 12.0*b[i + 77*ldb] + 19.0*b[i + 87*ldb] + 7.0*b[i + 99*ldb] + 12.0*b[i + 117*ldb];
    3f2a:	c5 fb 11 b5 10 e2 ff 	vmovsd QWORD PTR [rbp-0x1df0],xmm6
    3f31:	ff 
    3f32:	c5 fb 10 b5 10 ff ff 	vmovsd xmm6,QWORD PTR [rbp-0xf0]
    3f39:	ff 
    3f3a:	c5 cb 59 b5 90 fa ff 	vmulsd xmm6,xmm6,QWORD PTR [rbp-0x570]
    3f41:	ff 
    3f42:	62 e1 cf 00 58 f6    	vaddsd xmm22,xmm22,xmm6
    3f48:	c5 a3 59 b5 90 e7 ff 	vmulsd xmm6,xmm11,QWORD PTR [rbp-0x1870]
    3f4f:	ff 
    3f50:	62 f1 cf 00 58 f6    	vaddsd xmm6,xmm22,xmm6
    3f56:	62 e1 97 08 59 75 c2 	vmulsd xmm22,xmm13,QWORD PTR [rbp-0x1f0]
    3f5d:	62 b1 cf 08 58 f6    	vaddsd xmm6,xmm6,xmm22
    3f63:	62 b1 cf 08 58 f5    	vaddsd xmm6,xmm6,xmm21
    3f69:	c5 cb 58 b5 10 e2 ff 	vaddsd xmm6,xmm6,QWORD PTR [rbp-0x1df0]
    3f70:	ff 
        dotp = 12.0*b[i + 25*ldb] + 21.0*b[i + 28*ldb] + 8.0*b[i + 37*ldb] + 12.0*b[i + 96*ldb];
    3f71:	62 e1 df 08 59 ad d0 	vmulsd xmm21,xmm4,QWORD PTR [rbp-0x1830]
    3f78:	e7 ff ff 
        c[i + 70*ldc] = dotp;
    3f7b:	c4 a1 7b 11 34 d1    	vmovsd QWORD PTR [rcx+r10*8],xmm6
        dotp = 12.0*b[i + 25*ldb] + 21.0*b[i + 28*ldb] + 8.0*b[i + 37*ldb] + 12.0*b[i + 96*ldb];
    3f81:	c5 a3 59 b5 10 e9 ff 	vmulsd xmm6,xmm11,QWORD PTR [rbp-0x16f0]
    3f88:	ff 
        c[i + 71*ldc] = dotp;
    3f89:	4c 63 d2             	movsxd r10,edx
        c[i + 72*ldc] = dotp;
    3f8c:	44 01 c2             	add    edx,r8d
        dotp = 12.0*b[i + 25*ldb] + 21.0*b[i + 28*ldb] + 8.0*b[i + 37*ldb] + 12.0*b[i + 96*ldb];
    3f8f:	62 f1 d7 00 58 f6    	vaddsd xmm6,xmm21,xmm6
    3f95:	62 e1 d7 08 59 ad 10 	vmulsd xmm21,xmm5,QWORD PTR [rbp-0x9f0]
    3f9c:	f6 ff ff 
    3f9f:	62 b1 cf 08 58 f5    	vaddsd xmm6,xmm6,xmm21
    3fa5:	62 c1 ef 08 59 eb    	vmulsd xmm21,xmm2,xmm11
    3fab:	62 b1 cf 08 58 f5    	vaddsd xmm6,xmm6,xmm21
        dotp = 25.0*b[i + 11*ldb] + 29.0*b[i + 27*ldb] + 25.0*b[i + 36*ldb] + 30.0*b[i + 51*ldb] + 15.0*b[i + 53*ldb] + 15.0*b[i + 69*ldb] + 6.0*b[i + 76*ldb] + 7.0*b[i + 82*ldb] + 28.0*b[i + 83*ldb] + 15.0*b[i + 111*ldb] + 31.0*b[i + 124*ldb];
    3fb1:	62 e1 8f 08 59 ad d0 	vmulsd xmm21,xmm14,QWORD PTR [rbp-0x1630]
    3fb8:	e9 ff ff 
        c[i + 71*ldc] = dotp;
    3fbb:	c4 a1 7b 11 34 d1    	vmovsd QWORD PTR [rcx+r10*8],xmm6
        c[i + 72*ldc] = dotp;
    3fc1:	4c 63 d2             	movsxd r10,edx
        c[i + 73*ldc] = dotp;
    3fc4:	44 01 c2             	add    edx,r8d
        dotp = 25.0*b[i + 11*ldb] + 29.0*b[i + 27*ldb] + 25.0*b[i + 36*ldb] + 30.0*b[i + 51*ldb] + 15.0*b[i + 53*ldb] + 15.0*b[i + 69*ldb] + 6.0*b[i + 76*ldb] + 7.0*b[i + 82*ldb] + 28.0*b[i + 83*ldb] + 15.0*b[i + 111*ldb] + 31.0*b[i + 124*ldb];
    3fc7:	62 b1 fd 48 28 fd    	vmovapd zmm7,zmm21
    3fcd:	62 e1 ff 08 10 6d ea 	vmovsd xmm21,QWORD PTR [rbp-0xb0]
    3fd4:	62 f1 d7 00 59 b5 10 	vmulsd xmm6,xmm21,QWORD PTR [rbp-0xef0]
    3fdb:	f1 ff ff 
    3fde:	c5 fb 11 bd 50 e2 ff 	vmovsd QWORD PTR [rbp-0x1db0],xmm7
    3fe5:	ff 
    3fe6:	62 e1 d7 00 59 ad d0 	vmulsd xmm21,xmm21,QWORD PTR [rbp-0x1230]
    3fed:	ed ff ff 
    3ff0:	c5 cb 58 f7          	vaddsd xmm6,xmm6,xmm7
        dotp = 29.0*b[i + 14*ldb] + 18.0*b[i + 17*ldb] + 16.0*b[i + 23*ldb] + 12.0*b[i + 55*ldb] + 11.0*b[i + 72*ldb] + 4.0*b[i + 79*ldb];
    3ff4:	c5 fb 10 bd d0 f5 ff 	vmovsd xmm7,QWORD PTR [rbp-0xa30]
    3ffb:	ff 
        dotp = 25.0*b[i + 11*ldb] + 29.0*b[i + 27*ldb] + 25.0*b[i + 36*ldb] + 30.0*b[i + 51*ldb] + 15.0*b[i + 53*ldb] + 15.0*b[i + 69*ldb] + 6.0*b[i + 76*ldb] + 7.0*b[i + 82*ldb] + 28.0*b[i + 83*ldb] + 15.0*b[i + 111*ldb] + 31.0*b[i + 124*ldb];
    3ffc:	62 b1 cf 08 58 f5    	vaddsd xmm6,xmm6,xmm21
    4002:	62 e1 f7 08 59 ad d0 	vmulsd xmm21,xmm1,QWORD PTR [rbp-0x730]
    4009:	f8 ff ff 
    400c:	62 a1 cf 08 58 ed    	vaddsd xmm21,xmm6,xmm21
    4012:	62 f1 ff 00 59 b5 d0 	vmulsd xmm6,xmm16,QWORD PTR [rbp-0xe30]
    4019:	f1 ff ff 
    401c:	62 e1 d7 00 58 ee    	vaddsd xmm21,xmm21,xmm6
    4022:	62 f1 ff 00 59 b5 10 	vmulsd xmm6,xmm16,QWORD PTR [rbp-0x5f0]
    4029:	fa ff ff 
    402c:	62 f1 d7 00 58 f6    	vaddsd xmm6,xmm21,xmm6
    4032:	62 81 9f 08 59 ea    	vmulsd xmm21,xmm12,xmm26
    4038:	62 61 ff 08 10 55 f2 	vmovsd xmm26,QWORD PTR [rbp-0x70]
    403f:	62 b1 cf 08 58 f5    	vaddsd xmm6,xmm6,xmm21
    4045:	62 e1 a7 00 59 ad 90 	vmulsd xmm21,xmm27,QWORD PTR [rbp-0x1d70]
    404c:	e2 ff ff 
    404f:	62 a1 cf 08 58 ed    	vaddsd xmm21,xmm6,xmm21
    4055:	c5 ab 59 b5 50 f3 ff 	vmulsd xmm6,xmm10,QWORD PTR [rbp-0xcb0]
    405c:	ff 
    405d:	62 e1 d7 00 58 ee    	vaddsd xmm21,xmm21,xmm6
    4063:	62 f1 ff 00 59 b5 d0 	vmulsd xmm6,xmm16,QWORD PTR [rbp-0x1130]
    406a:	ee ff ff 
    406d:	62 f1 d7 00 58 f6    	vaddsd xmm6,xmm21,xmm6
    4073:	62 e1 af 00 59 ad 70 	vmulsd xmm21,xmm26,QWORD PTR [rbp-0x2290]
    407a:	dd ff ff 
    407d:	62 b1 cf 08 58 f5    	vaddsd xmm6,xmm6,xmm21
        dotp = 29.0*b[i + 14*ldb] + 18.0*b[i + 17*ldb] + 16.0*b[i + 23*ldb] + 12.0*b[i + 55*ldb] + 11.0*b[i + 72*ldb] + 4.0*b[i + 79*ldb];
    4083:	62 e1 8f 08 59 ad 10 	vmulsd xmm21,xmm14,QWORD PTR [rbp-0x18f0]
    408a:	e7 ff ff 
        c[i + 72*ldc] = dotp;
    408d:	c4 a1 7b 11 34 d1    	vmovsd QWORD PTR [rcx+r10*8],xmm6
        dotp = 29.0*b[i + 14*ldb] + 18.0*b[i + 17*ldb] + 16.0*b[i + 23*ldb] + 12.0*b[i + 55*ldb] + 11.0*b[i + 72*ldb] + 4.0*b[i + 79*ldb];
    4093:	62 f1 ef 00 59 75 92 	vmulsd xmm6,xmm18,QWORD PTR [rbp-0x370]
        c[i + 73*ldc] = dotp;
    409a:	4c 63 d2             	movsxd r10,edx
        c[i + 74*ldc] = dotp;
    409d:	44 01 c2             	add    edx,r8d
        dotp = 29.0*b[i + 14*ldb] + 18.0*b[i + 17*ldb] + 16.0*b[i + 23*ldb] + 12.0*b[i + 55*ldb] + 11.0*b[i + 72*ldb] + 4.0*b[i + 79*ldb];
    40a0:	62 b1 cf 08 58 f5    	vaddsd xmm6,xmm6,xmm21
    40a6:	62 e1 bf 08 59 ad 50 	vmulsd xmm21,xmm8,QWORD PTR [rbp-0x6b0]
    40ad:	f9 ff ff 
    40b0:	62 a1 cf 08 58 ed    	vaddsd xmm21,xmm6,xmm21
    40b6:	c5 a3 59 b5 d0 f4 ff 	vmulsd xmm6,xmm11,QWORD PTR [rbp-0xb30]
    40bd:	ff 
    40be:	62 e1 d7 00 58 ee    	vaddsd xmm21,xmm21,xmm6
    40c4:	c5 83 59 f7          	vmulsd xmm6,xmm15,xmm7
    40c8:	62 f1 d7 00 58 f6    	vaddsd xmm6,xmm21,xmm6
    40ce:	62 e1 9f 00 59 6d ca 	vmulsd xmm21,xmm28,QWORD PTR [rbp-0x1b0]
    40d5:	62 b1 cf 08 58 f5    	vaddsd xmm6,xmm6,xmm21
        dotp = 17.0*b[i + 13*ldb] + 21.0*b[i + 15*ldb] + 7.0*b[i + 41*ldb] + 9.0*b[i + 52*ldb] + 5.0*b[i + 57*ldb] + 31.0*b[i + 83*ldb] + 16.0*b[i + 85*ldb] + 6.0*b[i + 87*ldb];
    40db:	62 e1 df 00 59 ad 10 	vmulsd xmm21,xmm20,QWORD PTR [rbp-0x7f0]
    40e2:	f8 ff ff 
        c[i + 73*ldc] = dotp;
    40e5:	c4 a1 7b 11 34 d1    	vmovsd QWORD PTR [rcx+r10*8],xmm6
        dotp = 17.0*b[i + 13*ldb] + 21.0*b[i + 15*ldb] + 7.0*b[i + 41*ldb] + 9.0*b[i + 52*ldb] + 5.0*b[i + 57*ldb] + 31.0*b[i + 83*ldb] + 16.0*b[i + 85*ldb] + 6.0*b[i + 87*ldb];
    40eb:	62 f1 e7 00 59 75 9a 	vmulsd xmm6,xmm19,QWORD PTR [rbp-0x330]
        c[i + 74*ldc] = dotp;
    40f2:	4c 63 d2             	movsxd r10,edx
        c[i + 75*ldc] = dotp;
    40f5:	44 01 c2             	add    edx,r8d
        dotp = 17.0*b[i + 13*ldb] + 21.0*b[i + 15*ldb] + 7.0*b[i + 41*ldb] + 9.0*b[i + 52*ldb] + 5.0*b[i + 57*ldb] + 31.0*b[i + 83*ldb] + 16.0*b[i + 85*ldb] + 6.0*b[i + 87*ldb];
    40f8:	c5 fb 11 b5 d0 e8 ff 	vmovsd QWORD PTR [rbp-0x1730],xmm6
    40ff:	ff 
    4100:	62 e1 df 08 59 b5 50 	vmulsd xmm22,xmm4,QWORD PTR [rbp-0x5b0]
    4107:	fa ff ff 
    410a:	c5 fb 10 b5 d0 fe ff 	vmovsd xmm6,QWORD PTR [rbp-0x130]
    4111:	ff 
    4112:	c5 cb 59 b5 10 fd ff 	vmulsd xmm6,xmm6,QWORD PTR [rbp-0x2f0]
    4119:	ff 
    411a:	62 f1 cf 00 58 f6    	vaddsd xmm6,xmm22,xmm6
    4120:	62 e1 a7 00 59 b5 90 	vmulsd xmm22,xmm27,QWORD PTR [rbp-0xe70]
    4127:	f1 ff ff 
    412a:	62 b1 cf 08 58 f6    	vaddsd xmm6,xmm6,xmm22
    4130:	62 b1 cf 08 58 f5    	vaddsd xmm6,xmm6,xmm21
    4136:	62 e1 cf 08 58 b5 d0 	vaddsd xmm22,xmm6,QWORD PTR [rbp-0x1730]
    413d:	e8 ff ff 
    4140:	62 f1 af 00 59 b5 50 	vmulsd xmm6,xmm26,QWORD PTR [rbp-0xcb0]
    4147:	f3 ff ff 
        dotp = 10.0*b[i + 12*ldb] + 5.0*b[i + 16*ldb] + 12.0*b[i + 17*ldb] + 26.0*b[i + 67*ldb] + 23.0*b[i + 68*ldb] + 16.0*b[i + 87*ldb] + 9.0*b[i + 88*ldb] + 20.0*b[i + 91*ldb] + 10.0*b[i + 96*ldb] + 8.0*b[i + 110*ldb];
    414a:	62 61 e7 00 59 95 50 	vmulsd xmm26,xmm19,QWORD PTR [rbp-0x17b0]
    4151:	e8 ff ff 
        dotp = 17.0*b[i + 13*ldb] + 21.0*b[i + 15*ldb] + 7.0*b[i + 41*ldb] + 9.0*b[i + 52*ldb] + 5.0*b[i + 57*ldb] + 31.0*b[i + 83*ldb] + 16.0*b[i + 85*ldb] + 6.0*b[i + 87*ldb];
    4154:	62 f1 cf 00 58 f6    	vaddsd xmm6,xmm22,xmm6
    415a:	62 e1 bf 08 59 b5 50 	vmulsd xmm22,xmm8,QWORD PTR [rbp-0xeb0]
    4161:	f1 ff ff 
        dotp = 10.0*b[i + 12*ldb] + 5.0*b[i + 16*ldb] + 12.0*b[i + 17*ldb] + 26.0*b[i + 67*ldb] + 23.0*b[i + 68*ldb] + 16.0*b[i + 87*ldb] + 9.0*b[i + 88*ldb] + 20.0*b[i + 91*ldb] + 10.0*b[i + 96*ldb] + 8.0*b[i + 110*ldb];
    4164:	62 61 ff 08 11 95 50 	vmovsd QWORD PTR [rbp-0x17b0],xmm26
    416b:	e8 ff ff 
        dotp = 17.0*b[i + 13*ldb] + 21.0*b[i + 15*ldb] + 7.0*b[i + 41*ldb] + 9.0*b[i + 52*ldb] + 5.0*b[i + 57*ldb] + 31.0*b[i + 83*ldb] + 16.0*b[i + 85*ldb] + 6.0*b[i + 87*ldb];
    416e:	62 b1 cf 08 58 f6    	vaddsd xmm6,xmm6,xmm22
    4174:	62 e1 9f 08 59 75 c2 	vmulsd xmm22,xmm12,QWORD PTR [rbp-0x1f0]
    417b:	62 b1 cf 08 58 f6    	vaddsd xmm6,xmm6,xmm22
        c[i + 74*ldc] = dotp;
    4181:	c4 a1 7b 11 34 d1    	vmovsd QWORD PTR [rcx+r10*8],xmm6
        dotp = 10.0*b[i + 12*ldb] + 5.0*b[i + 16*ldb] + 12.0*b[i + 17*ldb] + 26.0*b[i + 67*ldb] + 23.0*b[i + 68*ldb] + 16.0*b[i + 87*ldb] + 9.0*b[i + 88*ldb] + 20.0*b[i + 91*ldb] + 10.0*b[i + 96*ldb] + 8.0*b[i + 110*ldb];
    4187:	62 f1 c7 00 59 b5 10 	vmulsd xmm6,xmm23,QWORD PTR [rbp-0xff0]
    418e:	f0 ff ff 
        c[i + 75*ldc] = dotp;
    4191:	4c 63 d2             	movsxd r10,edx
        c[i + 76*ldc] = dotp;
    4194:	44 01 c2             	add    edx,r8d
        dotp = 10.0*b[i + 12*ldb] + 5.0*b[i + 16*ldb] + 12.0*b[i + 17*ldb] + 26.0*b[i + 67*ldb] + 23.0*b[i + 68*ldb] + 16.0*b[i + 87*ldb] + 9.0*b[i + 88*ldb] + 20.0*b[i + 91*ldb] + 10.0*b[i + 96*ldb] + 8.0*b[i + 110*ldb];
    4197:	c5 fb 11 b5 10 e9 ff 	vmovsd QWORD PTR [rbp-0x16f0],xmm6
    419e:	ff 
    419f:	c5 a3 59 b5 90 fc ff 	vmulsd xmm6,xmm11,QWORD PTR [rbp-0x370]
    41a6:	ff 
    41a7:	62 e1 ff 08 10 b5 10 	vmovsd xmm22,QWORD PTR [rbp-0x16f0]
    41ae:	e9 ff ff 
    41b1:	62 81 cf 00 58 f2    	vaddsd xmm22,xmm22,xmm26
        dotp = 15.0*b[i + 0*ldb] + 15.0*b[i + 8*ldb] + 28.0*b[i + 11*ldb] + 10.0*b[i + 63*ldb] + 26.0*b[i + 72*ldb] + 4.0*b[i + 78*ldb] + 10.0*b[i + 89*ldb];
    41b7:	62 61 ff 00 59 95 48 	vmulsd xmm26,xmm16,QWORD PTR [rbp-0x1ab8]
    41be:	e5 ff ff 
        dotp = 10.0*b[i + 12*ldb] + 5.0*b[i + 16*ldb] + 12.0*b[i + 17*ldb] + 26.0*b[i + 67*ldb] + 23.0*b[i + 68*ldb] + 16.0*b[i + 87*ldb] + 9.0*b[i + 88*ldb] + 20.0*b[i + 91*ldb] + 10.0*b[i + 96*ldb] + 8.0*b[i + 110*ldb];
    41c1:	62 b1 cf 08 58 f6    	vaddsd xmm6,xmm6,xmm22
    41c7:	62 e1 ff 08 59 b5 90 	vmulsd xmm22,xmm0,QWORD PTR [rbp-0x1070]
    41ce:	ef ff ff 
    41d1:	c5 cb 58 b5 d0 da ff 	vaddsd xmm6,xmm6,QWORD PTR [rbp-0x2530]
    41d8:	ff 
    41d9:	62 b1 cf 08 58 f6    	vaddsd xmm6,xmm6,xmm22
    41df:	62 e1 97 00 59 b5 90 	vmulsd xmm22,xmm29,QWORD PTR [rbp-0xd70]
    41e6:	f2 ff ff 
    41e9:	c5 cb 58 b5 38 db ff 	vaddsd xmm6,xmm6,QWORD PTR [rbp-0x24c8]
    41f0:	ff 
    41f1:	c5 cb 58 b5 10 e5 ff 	vaddsd xmm6,xmm6,QWORD PTR [rbp-0x1af0]
    41f8:	ff 
    41f9:	62 b1 cf 08 58 f6    	vaddsd xmm6,xmm6,xmm22
    41ff:	62 e1 d7 08 59 b5 d0 	vmulsd xmm22,xmm5,QWORD PTR [rbp-0x1c30]
    4206:	e3 ff ff 
    4209:	c5 cb 58 b5 48 db ff 	vaddsd xmm6,xmm6,QWORD PTR [rbp-0x24b8]
    4210:	ff 
    4211:	62 b1 cf 08 58 f6    	vaddsd xmm6,xmm6,xmm22
        c[i + 75*ldc] = dotp;
    4217:	c4 a1 7b 11 34 d1    	vmovsd QWORD PTR [rcx+r10*8],xmm6
        dotp = 9.0*b[i + 52*ldb] + 13.0*b[i + 54*ldb] + 15.0*b[i + 105*ldb];
    421d:	62 f1 8f 00 59 b5 90 	vmulsd xmm6,xmm30,QWORD PTR [rbp-0x670]
    4224:	f9 ff ff 
        c[i + 76*ldc] = dotp;
    4227:	4c 63 d2             	movsxd r10,edx
        c[i + 77*ldc] = dotp;
    422a:	44 01 c2             	add    edx,r8d
        dotp = 9.0*b[i + 52*ldb] + 13.0*b[i + 54*ldb] + 15.0*b[i + 105*ldb];
    422d:	62 a1 cf 08 58 ed    	vaddsd xmm21,xmm6,xmm21
        dotp = 15.0*b[i + 0*ldb] + 15.0*b[i + 8*ldb] + 28.0*b[i + 11*ldb] + 10.0*b[i + 63*ldb] + 26.0*b[i + 72*ldb] + 4.0*b[i + 78*ldb] + 10.0*b[i + 89*ldb];
    4233:	62 f1 ff 00 59 b5 d0 	vmulsd xmm6,xmm16,QWORD PTR [rbp-0x1930]
    423a:	e6 ff ff 
        dotp = 9.0*b[i + 52*ldb] + 13.0*b[i + 54*ldb] + 15.0*b[i + 105*ldb];
    423d:	62 e1 d7 00 58 ad d8 	vaddsd xmm21,xmm21,QWORD PTR [rbp-0x2528]
    4244:	da ff ff 
        c[i + 76*ldc] = dotp;
    4247:	62 a1 ff 08 11 2c d1 	vmovsd QWORD PTR [rcx+r10*8],xmm21
        dotp = 15.0*b[i + 0*ldb] + 15.0*b[i + 8*ldb] + 28.0*b[i + 11*ldb] + 10.0*b[i + 63*ldb] + 26.0*b[i + 72*ldb] + 4.0*b[i + 78*ldb] + 10.0*b[i + 89*ldb];
    424e:	62 e1 c7 00 59 ad 10 	vmulsd xmm21,xmm23,QWORD PTR [rbp-0xaf0]
    4255:	f5 ff ff 
        c[i + 77*ldc] = dotp;
    4258:	4c 63 d2             	movsxd r10,edx
        c[i + 78*ldc] = dotp;
    425b:	44 01 c2             	add    edx,r8d
        dotp = 15.0*b[i + 0*ldb] + 15.0*b[i + 8*ldb] + 28.0*b[i + 11*ldb] + 10.0*b[i + 63*ldb] + 26.0*b[i + 72*ldb] + 4.0*b[i + 78*ldb] + 10.0*b[i + 89*ldb];
    425e:	62 91 cf 08 58 f2    	vaddsd xmm6,xmm6,xmm26
    4264:	c5 cb 58 b5 e0 da ff 	vaddsd xmm6,xmm6,QWORD PTR [rbp-0x2520]
    426b:	ff 
    426c:	62 a1 cf 08 58 ed    	vaddsd xmm21,xmm6,xmm21
    4272:	c5 e3 59 f7          	vmulsd xmm6,xmm3,xmm7
    4276:	62 e1 d7 00 58 ee    	vaddsd xmm21,xmm21,xmm6
    427c:	62 f1 9f 00 59 b5 d0 	vmulsd xmm6,xmm28,QWORD PTR [rbp-0xc30]
    4283:	f3 ff ff 
    4286:	62 f1 d7 00 58 f6    	vaddsd xmm6,xmm21,xmm6
    428c:	62 e1 c7 00 59 ad d0 	vmulsd xmm21,xmm23,QWORD PTR [rbp-0x630]
    4293:	f9 ff ff 
    4296:	62 b1 cf 08 58 f5    	vaddsd xmm6,xmm6,xmm21
        c[i + 77*ldc] = dotp;
    429c:	c4 a1 7b 11 34 d1    	vmovsd QWORD PTR [rcx+r10*8],xmm6
        dotp = 7.0*b[i + 8*ldb] + 6.0*b[i + 29*ldb] + 10.0*b[i + 32*ldb] + 29.0*b[i + 61*ldb] + 8.0*b[i + 70*ldb] + 6.0*b[i + 96*ldb] + 19.0*b[i + 111*ldb] + 14.0*b[i + 125*ldb];
    42a2:	44 8b 95 5c dc ff ff 	mov    r10d,DWORD PTR [rbp-0x23a4]
    42a9:	62 f1 c7 00 59 b5 90 	vmulsd xmm6,xmm23,QWORD PTR [rbp-0x570]
    42b0:	fa ff ff 
    42b3:	62 61 87 00 58 bd 28 	vaddsd xmm31,xmm31,QWORD PTR [rbp-0x24d8]
    42ba:	db ff ff 
        dotp = 18.0*b[i + 13*ldb] + 19.0*b[i + 21*ldb] + 13.0*b[i + 34*ldb] + 11.0*b[i + 61*ldb] + 9.0*b[i + 73*ldb] + 27.0*b[i + 87*ldb];
    42bd:	44 8b b5 58 dc ff ff 	mov    r14d,DWORD PTR [rbp-0x23a8]
        dotp = 7.0*b[i + 8*ldb] + 6.0*b[i + 29*ldb] + 10.0*b[i + 32*ldb] + 29.0*b[i + 61*ldb] + 8.0*b[i + 70*ldb] + 6.0*b[i + 96*ldb] + 19.0*b[i + 111*ldb] + 14.0*b[i + 125*ldb];
    42c4:	41 01 c2             	add    r10d,eax
    42c7:	4d 63 d2             	movsxd r10,r10d
    42ca:	62 a1 ff 08 10 2c d6 	vmovsd xmm21,QWORD PTR [rsi+r10*8]
        c[i + 78*ldc] = dotp;
    42d1:	4c 63 d2             	movsxd r10,edx
        c[i + 79*ldc] = dotp;
    42d4:	44 01 c2             	add    edx,r8d
        dotp = 7.0*b[i + 8*ldb] + 6.0*b[i + 29*ldb] + 10.0*b[i + 32*ldb] + 29.0*b[i + 61*ldb] + 8.0*b[i + 70*ldb] + 6.0*b[i + 96*ldb] + 19.0*b[i + 111*ldb] + 14.0*b[i + 125*ldb];
    42d7:	62 91 cf 08 58 f7    	vaddsd xmm6,xmm6,xmm31
        c[i + 80*ldc] = dotp;
        dotp = 5.0*b[i + 22*ldb] + 30.0*b[i + 32*ldb] + 5.0*b[i + 108*ldb];
        c[i + 81*ldc] = dotp;
        dotp = 24.0*b[i + 13*ldb] + 5.0*b[i + 47*ldb] + 13.0*b[i + 60*ldb] + 17.0*b[i + 114*ldb];
    42dd:	62 61 ff 08 10 7d da 	vmovsd xmm31,QWORD PTR [rbp-0x130]
        dotp = 7.0*b[i + 8*ldb] + 6.0*b[i + 29*ldb] + 10.0*b[i + 32*ldb] + 29.0*b[i + 61*ldb] + 8.0*b[i + 70*ldb] + 6.0*b[i + 96*ldb] + 19.0*b[i + 111*ldb] + 14.0*b[i + 125*ldb];
    42e4:	62 a1 8f 08 59 f5    	vmulsd xmm22,xmm14,xmm21
    42ea:	62 b1 fd 48 28 fd    	vmovapd zmm7,zmm21
    42f0:	62 e1 d7 08 59 ad 50 	vmulsd xmm21,xmm5,QWORD PTR [rbp-0x10b0]
    42f7:	ef ff ff 
        dotp = 18.0*b[i + 13*ldb] + 19.0*b[i + 21*ldb] + 13.0*b[i + 34*ldb] + 11.0*b[i + 61*ldb] + 9.0*b[i + 73*ldb] + 27.0*b[i + 87*ldb];
    42fa:	c5 fb 11 bd 50 f3 ff 	vmovsd QWORD PTR [rbp-0xcb0],xmm7
    4301:	ff 
        dotp = 7.0*b[i + 8*ldb] + 6.0*b[i + 29*ldb] + 10.0*b[i + 32*ldb] + 29.0*b[i + 61*ldb] + 8.0*b[i + 70*ldb] + 6.0*b[i + 96*ldb] + 19.0*b[i + 111*ldb] + 14.0*b[i + 125*ldb];
    4302:	62 b1 cf 08 58 f6    	vaddsd xmm6,xmm6,xmm22
    4308:	62 b1 cf 08 58 f5    	vaddsd xmm6,xmm6,xmm21
    430e:	62 e1 97 08 59 ad d0 	vmulsd xmm21,xmm13,QWORD PTR [rbp-0x1130]
    4315:	ee ff ff 
    4318:	c5 cb 58 b5 90 dd ff 	vaddsd xmm6,xmm6,QWORD PTR [rbp-0x2270]
    431f:	ff 
    4320:	62 b1 cf 08 58 f5    	vaddsd xmm6,xmm6,xmm21
    4326:	62 e1 f7 00 59 ad 90 	vmulsd xmm21,xmm17,QWORD PTR [rbp-0x1670]
    432d:	e9 ff ff 
    4330:	62 b1 cf 08 58 f5    	vaddsd xmm6,xmm6,xmm21
        dotp = 21.0*b[i + 1*ldb] + 23.0*b[i + 25*ldb] + 24.0*b[i + 68*ldb] + 9.0*b[i + 103*ldb] + 5.0*b[i + 113*ldb];
    4336:	62 e1 df 08 59 ad 90 	vmulsd xmm21,xmm4,QWORD PTR [rbp-0x470]
    433d:	fb ff ff 
    4340:	62 e1 d7 00 58 ad 18 	vaddsd xmm21,xmm21,QWORD PTR [rbp-0x1ae8]
    4347:	e5 ff ff 
        c[i + 78*ldc] = dotp;
    434a:	c4 a1 7b 11 34 d1    	vmovsd QWORD PTR [rcx+r10*8],xmm6
        dotp = 21.0*b[i + 1*ldb] + 23.0*b[i + 25*ldb] + 24.0*b[i + 68*ldb] + 9.0*b[i + 103*ldb] + 5.0*b[i + 113*ldb];
    4350:	62 f1 b7 00 59 b5 90 	vmulsd xmm6,xmm25,QWORD PTR [rbp-0x1070]
    4357:	ef ff ff 
        c[i + 79*ldc] = dotp;
    435a:	4c 63 d2             	movsxd r10,edx
        c[i + 80*ldc] = dotp;
    435d:	44 01 c2             	add    edx,r8d
        dotp = 21.0*b[i + 1*ldb] + 23.0*b[i + 25*ldb] + 24.0*b[i + 68*ldb] + 9.0*b[i + 103*ldb] + 5.0*b[i + 113*ldb];
    4360:	62 e1 d7 00 58 ee    	vaddsd xmm21,xmm21,xmm6
    4366:	62 f1 df 00 59 b5 d0 	vmulsd xmm6,xmm20,QWORD PTR [rbp-0x530]
    436d:	fa ff ff 
    4370:	62 f1 d7 00 58 f6    	vaddsd xmm6,xmm21,xmm6
    4376:	62 e1 e7 00 59 ad 10 	vmulsd xmm21,xmm19,QWORD PTR [rbp-0x19f0]
    437d:	e6 ff ff 
    4380:	62 b1 cf 08 58 f5    	vaddsd xmm6,xmm6,xmm21
        c[i + 79*ldc] = dotp;
    4386:	c4 a1 7b 11 34 d1    	vmovsd QWORD PTR [rcx+r10*8],xmm6
        dotp = 18.0*b[i + 13*ldb] + 19.0*b[i + 21*ldb] + 13.0*b[i + 34*ldb] + 11.0*b[i + 61*ldb] + 9.0*b[i + 73*ldb] + 27.0*b[i + 87*ldb];
    438c:	45 8d 14 06          	lea    r10d,[r14+rax*1]
    4390:	c5 93 59 b5 50 f2 ff 	vmulsd xmm6,xmm13,QWORD PTR [rbp-0xdb0]
    4397:	ff 
    4398:	4d 63 d2             	movsxd r10,r10d
