(dp0
S'vary_row/q_16'
p1
(dp2
S'speedup_best'
p3
(lp4
F0.9963865468359122
aF0.9948666127728375
aF0.9910409281340637
aF1.0320317904660778
aF0.9930340418673781
aF0.9913700986839808
asS'a_unique'
p5
(lp6
I16
aI16
aI16
aI16
aI16
aI16
asS'xsmm_upstream_best'
p7
(lp8
F32.262
aF49.226
aF76.88
aF128.296
aF221.816
aF425.846
asS'a_cols'
p9
(lp10
I128
aI128
aI128
aI128
aI128
aI128
asS'density'
p11
(lp12
F0.0498046875
aF0.0499267578125
aF0.04998779296875
aF0.04998779296875
aF0.04998779296875
aF0.04999542236328125
asS'xsmm_local_best'
p13
(lp14
F32.379
aF49.48
aF77.575
aF124.314
aF223.372
aF429.553
asS'xsmm_upstream_avg'
p15
(lp16
F33.844312499999994
aF50.77364583333335
aF77.62379166666663
aF128.71745833333338
aF222.38216666666662
aF426.3263958333332
asS'a_rows'
p17
(lp18
I32
aI64
aI128
aI256
aI512
aI1024
asS'mat_file'
p19
(lp20
S'synth_mats/vary_row/q_16/r_32_c_128_p_0.05_uniq_16.txt'
p21
aS'synth_mats/vary_row/q_16/r_64_c_128_p_0.05_uniq_16.txt'
p22
aS'synth_mats/vary_row/q_16/r_128_c_128_p_0.05_uniq_16.txt'
p23
aS'synth_mats/vary_row/q_16/r_256_c_128_p_0.05_uniq_16.txt'
p24
aS'synth_mats/vary_row/q_16/r_512_c_128_p_0.05_uniq_16.txt'
p25
aS'synth_mats/vary_row/q_16/r_1024_c_128_p_0.05_uniq_16.txt'
p26
asS'speedup_avg'
p27
(lp28
F1.0048251837355247
aF1.0000574477994415
aF0.9909291075727996
aF1.0313170661192965
aF0.9939789574526646
aF0.991414849140094
asS'xsmm_local_avg'
p29
(lp30
F33.68179166666666
aF50.77072916666668
aF78.33435416666669
aF124.8088125
aF223.72925000000006
aF430.01816666666673
assS'vary_col/q_16'
p31
(dp32
g3
(lp33
F0.9860892827286407
aF1.001947222165879
aF0.9876964526268525
aF1.0390557646253844
aF1.0182159179098043
aF1.0107137872916017
asg5
(lp34
I16
aI16
aI16
aI16
aI16
aI16
asg7
(lp35
F29.489
aF49.397
aF76.986
aF151.85799999999995
aF377.864
aF847.341
asg9
(lp36
I32
aI64
aI128
aI256
aI512
aI1024
asg11
(lp37
F0.0498046875
aF0.0499267578125
aF0.04998779296875
aF0.04998779296875
aF0.04998779296875
aF0.04999542236328125
asg13
(lp38
F29.905
aF49.301
aF77.945
aF146.15
aF371.104
aF838.359
asg15
(lp39
F29.869937500000006
aF50.44222916666667
aF77.99408333333332
aF152.77022916666667
aF379.8141041666666
aF868.9332708333335
asg17
(lp40
I128
aI128
aI128
aI128
aI128
aI128
asg19
(lp41
S'synth_mats/vary_col/q_16/r_128_c_32_p_0.05_uniq_16.txt'
p42
aS'synth_mats/vary_col/q_16/r_128_c_64_p_0.05_uniq_16.txt'
p43
aS'synth_mats/vary_col/q_16/r_128_c_128_p_0.05_uniq_16.txt'
p44
aS'synth_mats/vary_col/q_16/r_128_c_256_p_0.05_uniq_16.txt'
p45
aS'synth_mats/vary_col/q_16/r_128_c_512_p_0.05_uniq_16.txt'
p46
aS'synth_mats/vary_col/q_16/r_128_c_1024_p_0.05_uniq_16.txt'
p47
asg27
(lp48
F0.9897433065376241
aF1.0048369585967964
aF0.9921152128187614
aF1.0385889807157074
aF1.020123217785511
aF1.0201248232462312
asg29
(lp49
F30.179479166666667
aF50.19941666666667
aF78.61393750000002
aF147.0940208333333
aF372.32179166666657
aF851.7911250000001
assS'vary_density/q_16'
p50
(dp51
g3
(lp52
F0.9980313576601281
aF1.0329025726536445
aF0.994163818287574
aF0.996626609559768
aF0.9977119106595576
aF1.0008856368379653
aF1.0265079112243813
aF0.9906137184115524
aF0.9936440677966102
aF0.9967865076455239
aF1.013616563833242
aF0.9920504789977892
asg5
(lp53
I16
aI16
aI16
aI16
aI16
aI16
aI16
aI16
aI16
aI16
aI16
aI16
asg7
(lp54
F42.585
aF104.067
aF152.118
aF218.033
aF285.174
aF353.731
aF77.333
aF120.736
aF63.315
aF184.872
aF90.519
aF107.697
asg9
(lp55
I128
aI128
aI128
aI128
aI128
aI128
aI128
aI128
aI128
aI128
aI128
aI128
asg11
(lp56
F0.00994873046875
aF0.0999755859375
aF0.199951171875
aF0.29998779296875
aF0.39996337890625
aF0.5
aF0.04998779296875
aF0.14996337890625
aF0.02496337890625
aF0.25
aF0.074951171875
aF0.125
asg13
(lp57
F42.669
aF100.752
aF153.011
aF218.771
aF285.828
aF353.418
aF75.336
aF121.88
aF63.72
aF185.468
aF89.303
aF108.56
asg15
(lp58
F43.87795833333334
aF104.81566666666669
aF152.46375000000003
aF218.2508541666666
aF285.4933958333333
aF354.1199166666667
aF78.08754166666667
aF121.32352083333332
aF64.18493750000002
aF185.114
aF91.34004166666669
aF108.75689583333332
asg17
(lp59
I128
aI128
aI128
aI128
aI128
aI128
aI128
aI128
aI128
aI128
aI128
aI128
asg19
(lp60
S'synth_mats/vary_density/q_16/r_128_c_128_p_0.01_uniq_16.txt'
p61
aS'synth_mats/vary_density/q_16/r_128_c_128_p_0.1_uniq_16.txt'
p62
aS'synth_mats/vary_density/q_16/r_128_c_128_p_0.2_uniq_16.txt'
p63
aS'synth_mats/vary_density/q_16/r_128_c_128_p_0.3_uniq_16.txt'
p64
aS'synth_mats/vary_density/q_16/r_128_c_128_p_0.4_uniq_16.txt'
p65
aS'synth_mats/vary_density/q_16/r_128_c_128_p_0.5_uniq_16.txt'
p66
aS'synth_mats/vary_density/q_16/r_128_c_128_p_0.05_uniq_16.txt'
p67
aS'synth_mats/vary_density/q_16/r_128_c_128_p_0.15_uniq_16.txt'
p68
aS'synth_mats/vary_density/q_16/r_128_c_128_p_0.025_uniq_16.txt'
p69
aS'synth_mats/vary_density/q_16/r_128_c_128_p_0.25_uniq_16.txt'
p70
aS'synth_mats/vary_density/q_16/r_128_c_128_p_0.075_uniq_16.txt'
p71
aS'synth_mats/vary_density/q_16/r_128_c_128_p_0.125_uniq_16.txt'
p72
asg27
(lp73
F1.0037703189019704
aF1.032737042015179
aF0.9945447394692492
aF0.9964373414478545
aF0.9975231678003953
aF1.00143182415505
aF1.02647663084051
aF0.9923571752340506
aF0.9936213477474924
aF0.9963005965712711
aF1.0147913962934596
aF0.9922640623604124
asg29
(lp74
F43.713145833333336
aF101.4930833333333
aF153.30004166666666
aF219.03118750000007
aF286.2022708333333
aF353.6136041666666
aF76.07337499999998
aF122.25791666666669
aF64.59697916666666
aF185.80135416666664
aF90.00868750000002
aF109.60479166666664
assS'vary_col/q_64'
p75
(dp76
g3
(lp77
F2.007554700306464
aF1.836582314243048
aF2.278385861408684
aF3.6247484630223292
aF3.555340337855618
aF3.411261405944777
asg5
(lp78
I64
aI64
aI64
aI64
aI64
aI64
asg7
(lp79
F56.336
aF91.01
aF176.101
aF522.377
aF1310.566
aF2729.456
asg9
(lp80
I32
aI64
aI128
aI256
aI512
aI1024
asg11
(lp81
F0.0498046875
aF0.0499267578125
aF0.04998779296875
aF0.04998779296875
aF0.04998779296875
aF0.04999542236328125
asg13
(lp82
F28.062
aF49.554
aF77.292
aF144.114
aF368.619
aF800.131
asg15
(lp83
F56.72106250000002
aF92.17672916666669
aF179.0968333333333
aF528.8125833333334
aF1322.5929166666667
aF2788.4457708333334
asg17
(lp84
I128
aI128
aI128
aI128
aI128
aI128
asg19
(lp85
S'synth_mats/vary_col/q_64/r_128_c_32_p_0.05_uniq_64.txt'
p86
aS'synth_mats/vary_col/q_64/r_128_c_64_p_0.05_uniq_64.txt'
p87
aS'synth_mats/vary_col/q_64/r_128_c_128_p_0.05_uniq_64.txt'
p88
aS'synth_mats/vary_col/q_64/r_128_c_256_p_0.05_uniq_64.txt'
p89
aS'synth_mats/vary_col/q_64/r_128_c_512_p_0.05_uniq_64.txt'
p90
aS'synth_mats/vary_col/q_64/r_128_c_1024_p_0.05_uniq_64.txt'
p91
asg27
(lp92
F1.9968572325457228
aF1.8328262957007024
aF2.2918833029851418
aF3.6502013844389247
aF3.577575698899742
aF3.4735560772946137
asg29
(lp93
F28.405166666666673
aF50.292125
aF78.14395833333334
aF144.8721666666667
aF369.68970833333333
aF802.764
assS'vary_row/q_64'
p94
(dp95
g3
(lp96
F2.2030460040822737
aF2.055406100407485
aF2.3467720510095638
aF2.6352693325185146
aF2.8751432459533017
aF3.293125574579886
asg5
(lp97
I64
aI64
aI64
aI64
aI64
aI64
asg7
(lp98
F70.156
aF103.909
aF176.66499999999996
aF327.73
aF642.284
aF1411.348
asg9
(lp99
I128
aI128
aI128
aI128
aI128
aI128
asg11
(lp100
F0.0498046875
aF0.0499267578125
aF0.04998779296875
aF0.04998779296875
aF0.04998779296875
aF0.04999542236328125
asg13
(lp101
F31.845
aF50.554
aF75.28
aF124.363
aF223.392
aF428.57399999999996
asg15
(lp102
F70.39143750000002
aF104.42504166666663
aF179.18737499999997
aF332.9503541666667
aF647.8773958333333
aF1424.139833333333
asg17
(lp103
I32
aI64
aI128
aI256
aI512
aI1024
asg19
(lp104
S'synth_mats/vary_row/q_64/r_32_c_128_p_0.05_uniq_64.txt'
p105
aS'synth_mats/vary_row/q_64/r_64_c_128_p_0.05_uniq_64.txt'
p106
aS'synth_mats/vary_row/q_64/r_128_c_128_p_0.05_uniq_64.txt'
p107
aS'synth_mats/vary_row/q_64/r_256_c_128_p_0.05_uniq_64.txt'
p108
aS'synth_mats/vary_row/q_64/r_512_c_128_p_0.05_uniq_64.txt'
p109
aS'synth_mats/vary_row/q_64/r_1024_c_128_p_0.05_uniq_64.txt'
p110
asg27
(lp111
F2.1310208725684734
aF2.013176977882132
aF2.3507421200478182
aF2.6676207147331743
aF2.8957293597172917
aF3.320056838345883
asg29
(lp112
F33.03179166666666
aF51.87077083333333
aF76.22587499999999
aF124.81172916666667
aF223.7354791666667
aF428.9504374999999
assS'vary_unique'
p113
(dp114
g3
(lp115
F0.9906678257312334
aF0.9986061278748612
aF0.988809661463352
aF0.9907496380571676
aF2.327654135536493
aF2.327469339311618
aF2.341001762554915
aF2.3296778796607027
aF2.348252139828814
aF2.3360891729839666
aF2.2574844938934717
aF2.257845934379458
aF0.9950814044447442
asg5
(lp116
I8
aI16
aI24
aI31
aI40
aI48
aI56
aI64
aI78
aI96
aI112
aI120
aI128
asg7
(lp117
F77.494
aF77.374
aF76.964
aF77.329
aF176.648
aF176.492
aF177.97699999999998
aF176.32399999999996
aF176.133
aF176.884
aF176.524
aF177.268
aF176.81899999999996
asg9
(lp118
I128
aI128
aI128
aI128
aI128
aI128
aI128
aI128
aI128
aI128
aI128
aI128
aI128
asg11
(lp119
F0.04998779296875
aF0.04998779296875
aF0.04998779296875
aF0.04998779296875
aF0.04998779296875
aF0.04998779296875
aF0.04998779296875
aF0.04998779296875
aF0.04998779296875
aF0.04998779296875
aF0.04998779296875
aF0.04998779296875
aF0.04998779296875
asg13
(lp120
F78.224
aF77.482
aF77.835
aF78.051
aF75.891
aF75.83
aF76.026
aF75.686
aF75.006
aF75.718
aF78.195
aF78.512
aF177.693
asg15
(lp121
F78.29597916666664
aF78.194625
aF77.80837500000003
aF78.4905
aF179.56199999999998
aF178.72095833333336
aF179.59287499999994
aF179.28416666666666
aF179.72402083333336
aF179.09568750000003
aF179.36979166666666
aF179.0950833333333
aF178.68733333333333
asg17
(lp122
I128
aI128
aI128
aI128
aI128
aI128
aI128
aI128
aI128
aI128
aI128
aI128
aI128
asg19
(lp123
S'synth_mats/vary_unique/r_128_c_128_p_0.05_uniq_8.txt'
p124
aS'synth_mats/vary_unique/r_128_c_128_p_0.05_uniq_16.txt'
p125
aS'synth_mats/vary_unique/r_128_c_128_p_0.05_uniq_24.txt'
p126
aS'synth_mats/vary_unique/r_128_c_128_p_0.05_uniq_31.txt'
p127
aS'synth_mats/vary_unique/r_128_c_128_p_0.05_uniq_40.txt'
p128
aS'synth_mats/vary_unique/r_128_c_128_p_0.05_uniq_48.txt'
p129
aS'synth_mats/vary_unique/r_128_c_128_p_0.05_uniq_56.txt'
p130
aS'synth_mats/vary_unique/r_128_c_128_p_0.05_uniq_64.txt'
p131
aS'synth_mats/vary_unique/r_128_c_128_p_0.05_uniq_78.txt'
p132
aS'synth_mats/vary_unique/r_128_c_128_p_0.05_uniq_96.txt'
p133
aS'synth_mats/vary_unique/r_128_c_128_p_0.05_uniq_112.txt'
p134
aS'synth_mats/vary_unique/r_128_c_128_p_0.05_uniq_120.txt'
p135
aS'synth_mats/vary_unique/r_128_c_128_p_0.05_uniq_128.txt'
p136
asg27
(lp137
F0.9891455285083515
aF0.9976298814090151
aF0.9884343085078936
aF0.9988417018101959
aF2.354760281785186
aF2.3352963354662037
aF2.3381907433722446
aF2.338646734888656
aF2.360393127384709
aF2.337480198318631
aF2.2681314848447016
aF2.2630463459701278
aF0.9982979917047028
asg29
(lp138
F79.15516666666666
aF78.38039583333334
aF78.7188125
aF78.5815208333333
aF76.25489583333332
aF76.53031249999998
aF76.80847916666669
aF76.66149999999999
aF76.14156250000002
aF76.61912500000001
aF79.08262499999998
aF79.13893749999998
aF178.99197916666665
assS'vary_density/q_64'
p139
(dp140
g3
(lp141
F1.7879929691288186
aF4.155812708095649
aF1.1633932494376718
aF0.8094665926778598
aF0.6174936915904184
aF2.272458400843556
aF0.49913564301630775
aF1.455189610902627
aF2.8317976023466396
aF0.9532532278689322
aF2.0290760681592843
aF1.6263398000092164
asg5
(lp142
I64
aI64
aI64
aI64
aI64
aI64
aI64
aI64
aI64
aI64
aI64
aI64
asg7
(lp143
F176.997
aF178.488
aF177.407
aF176.505
aF176.68100000000004
aF176.72
aF175.838
aF176.823
aF177.633
aF176.675
aF175.998
aF176.466
asg9
(lp144
I128
aI128
aI128
aI128
aI128
aI128
aI128
aI128
aI128
aI128
aI128
aI128
asg11
(lp145
F0.0999755859375
aF0.00994873046875
aF0.199951171875
aF0.29998779296875
aF0.39996337890625
aF0.04998779296875
aF0.5
aF0.14996337890625
aF0.02496337890625
aF0.25
aF0.074951171875
aF0.125
asg13
(lp146
F98.992
aF42.949
aF152.491
aF218.051
aF286.126
aF77.766
aF352.285
aF121.512
aF62.728
aF185.339
aF86.738
aF108.505
asg15
(lp147
F179.39349999999993
aF179.71191666666672
aF179.87520833333335
aF179.26339583333333
aF179.19295833333334
aF178.883875
aF178.6649166666667
aF179.2998125
aF179.57354166666676
aF179.46691666666666
aF178.2034583333333
aF179.72006249999995
asg17
(lp148
I128
aI128
aI128
aI128
aI128
aI128
aI128
aI128
aI128
aI128
aI128
aI128
asg19
(lp149
S'synth_mats/vary_density/q_64/r_128_c_128_p_0.1_uniq_64.txt'
p150
aS'synth_mats/vary_density/q_64/r_128_c_128_p_0.01_uniq_64.txt'
p151
aS'synth_mats/vary_density/q_64/r_128_c_128_p_0.2_uniq_64.txt'
p152
aS'synth_mats/vary_density/q_64/r_128_c_128_p_0.3_uniq_64.txt'
p153
aS'synth_mats/vary_density/q_64/r_128_c_128_p_0.4_uniq_64.txt'
p154
aS'synth_mats/vary_density/q_64/r_128_c_128_p_0.05_uniq_64.txt'
p155
aS'synth_mats/vary_density/q_64/r_128_c_128_p_0.5_uniq_64.txt'
p156
aS'synth_mats/vary_density/q_64/r_128_c_128_p_0.15_uniq_64.txt'
p157
aS'synth_mats/vary_density/q_64/r_128_c_128_p_0.025_uniq_64.txt'
p158
aS'synth_mats/vary_density/q_64/r_128_c_128_p_0.25_uniq_64.txt'
p159
aS'synth_mats/vary_density/q_64/r_128_c_128_p_0.075_uniq_64.txt'
p160
aS'synth_mats/vary_density/q_64/r_128_c_128_p_0.125_uniq_64.txt'
p161
asg27
(lp162
F1.800082280989579
aF4.053783698813543
aF1.1773070978963676
aF0.8212347378095747
aF0.625753167137792
aF2.277953890833959
aF0.5069208735817042
aF1.4685345864623165
aF2.813640043349395
aF0.9671069146521252
aF2.04469870944285
aF1.646853533335535
asg29
(lp163
F99.65849999999999
aF44.331895833333334
aF152.7852916666666
aF218.28520833333326
aF286.36364583333335
aF78.52831249999998
aF352.4512916666667
aF122.09437500000001
aF63.8225
aF185.5709166666667
aF87.15389583333335
aF109.12935416666664
ass.