(dp0
S'vary_row/q_16'
p1
(dp2
S'speedup_best'
p3
(lp4
F0.9893294427280008
aF1.0041087231352719
aF1.0236067041459849
aF1.0214847802838034
aF0.9940074070768818
aF0.9962544202493953
asS'a_unique'
p5
(lp6
I16
aI16
aI16
aI16
aI16
aI16
asS'xsmm_upstream_best'
p7
(lp8
F34.583
aF50.832
aF77.746
aF127.99
aF222.767
aF428.23
asS'a_cols'
p9
(lp10
I128
aI128
aI128
aI128
aI128
aI128
asS'density'
p11
(lp12
F0.0498046875
aF0.0499267578125
aF0.04998779296875
aF0.04998779296875
aF0.04998779296875
aF0.04999542236328125
asS'xsmm_local_best'
p13
(lp14
F34.956
aF50.624
aF75.953
aF125.298
aF224.11
aF429.84
asS'xsmm_upstream_avg'
p15
(lp16
F34.99639583333333
aF51.01918750000001
aF77.93162499999998
aF128.21691666666666
aF223.13758333333337
aF428.57912500000003
asS'a_rows'
p17
(lp18
I32
aI64
aI128
aI256
aI512
aI1024
asS'mat_file'
p19
(lp20
S'synth_mats/vary_row/q_16/r_32_c_128_p_0.05_uniq_16.txt'
p21
aS'synth_mats/vary_row/q_16/r_64_c_128_p_0.05_uniq_16.txt'
p22
aS'synth_mats/vary_row/q_16/r_128_c_128_p_0.05_uniq_16.txt'
p23
aS'synth_mats/vary_row/q_16/r_256_c_128_p_0.05_uniq_16.txt'
p24
aS'synth_mats/vary_row/q_16/r_512_c_128_p_0.05_uniq_16.txt'
p25
aS'synth_mats/vary_row/q_16/r_1024_c_128_p_0.05_uniq_16.txt'
p26
asS'speedup_avg'
p27
(lp28
F0.9927251753256386
aF1.0026682727345682
aF1.0237547620090204
aF1.0215725952697083
aF0.9938443582748837
aF0.9961491571266405
asS'xsmm_local_avg'
p29
(lp30
F35.25285416666666
aF50.883416666666676
aF76.12333333333332
aF125.50935416666668
aF224.51964583333336
aF430.23589583333325
assS'vary_col/q_16'
p31
(dp32
g3
(lp33
F1.0011406716543094
aF1.001041082726035
aF0.998128493052351
aF1.0265884560605345
aF0.9488156968096823
aF1.003469058199559
asg5
(lp34
I16
aI16
aI16
aI16
aI16
aI16
asg7
(lp35
F29.841
aF50.0
aF77.866
aF152.086
aF348.94500000000005
aF821.506
asg9
(lp36
I32
aI64
aI128
aI256
aI512
aI1024
asg11
(lp37
F0.0498046875
aF0.0499267578125
aF0.04998779296875
aF0.04998779296875
aF0.04998779296875
aF0.04999542236328125
asg13
(lp38
F29.807
aF49.948
aF78.012
aF148.147
aF367.769
aF818.6659999999999
asg15
(lp39
F30.140375000000002
aF50.502166666666675
aF78.10810416666668
aF152.82766666666666
aF369.562125
aF842.6373958333332
asg17
(lp40
I128
aI128
aI128
aI128
aI128
aI128
asg19
(lp41
S'synth_mats/vary_col/q_16/r_128_c_32_p_0.05_uniq_16.txt'
p42
aS'synth_mats/vary_col/q_16/r_128_c_64_p_0.05_uniq_16.txt'
p43
aS'synth_mats/vary_col/q_16/r_128_c_128_p_0.05_uniq_16.txt'
p44
aS'synth_mats/vary_col/q_16/r_128_c_256_p_0.05_uniq_16.txt'
p45
aS'synth_mats/vary_col/q_16/r_128_c_512_p_0.05_uniq_16.txt'
p46
aS'synth_mats/vary_col/q_16/r_128_c_1024_p_0.05_uniq_16.txt'
p47
asg27
(lp48
F1.002433437313352
aF1.0077729049595348
aF0.9989430228852731
aF1.0233337392782076
aF0.9936310420533381
aF1.0275962416638285
asg29
(lp49
F30.067208333333337
aF50.112645833333346
aF78.19075000000001
aF149.3429375
aF371.9309375
aF820.0082500000002
assS'vary_density/q_16'
p50
(dp51
g3
(lp52
F1.0125432823499736
aF1.0233078408956517
aF0.9928246582629963
aF0.9963348502602393
aF0.9979843131520958
aF1.0001894801738693
aF1.0193979583844608
aF0.9937297173888232
aF1.0024071687037008
aF0.994703853587178
aF1.0269289469221639
aF0.9919860531768271
asg5
(lp53
I16
aI16
aI16
aI16
aI16
aI16
aI16
aI16
aI16
aI16
aI16
aI16
asg7
(lp54
F44.156
aF103.833
aF153.033
aF219.375
aF286.668
aF353.666
aF78.092
aF121.87300000000005
aF64.546
aF186.314
aF90.837
aF108.681
asg9
(lp55
I128
aI128
aI128
aI128
aI128
aI128
aI128
aI128
aI128
aI128
aI128
aI128
asg11
(lp56
F0.00994873046875
aF0.0999755859375
aF0.199951171875
aF0.29998779296875
aF0.39996337890625
aF0.5
aF0.04998779296875
aF0.14996337890625
aF0.02496337890625
aF0.25
aF0.074951171875
aF0.125
asg13
(lp57
F43.609
aF101.468
aF154.139
aF220.182
aF287.24699999999996
aF353.599
aF76.606
aF122.642
aF64.391
aF187.306
aF88.455
aF109.559
asg15
(lp58
F44.630895833333334
aF104.32625000000002
aF153.2052291666667
aF219.55212500000002
aF286.79710416666677
aF353.9860416666667
aF78.23322916666667
aF122.124125
aF64.76772916666665
aF186.47989583333336
aF91.02897916666667
aF109.24410416666666
asg17
(lp59
I128
aI128
aI128
aI128
aI128
aI128
aI128
aI128
aI128
aI128
aI128
aI128
asg19
(lp60
S'synth_mats/vary_density/q_16/r_128_c_128_p_0.01_uniq_16.txt'
p61
aS'synth_mats/vary_density/q_16/r_128_c_128_p_0.1_uniq_16.txt'
p62
aS'synth_mats/vary_density/q_16/r_128_c_128_p_0.2_uniq_16.txt'
p63
aS'synth_mats/vary_density/q_16/r_128_c_128_p_0.3_uniq_16.txt'
p64
aS'synth_mats/vary_density/q_16/r_128_c_128_p_0.4_uniq_16.txt'
p65
aS'synth_mats/vary_density/q_16/r_128_c_128_p_0.5_uniq_16.txt'
p66
aS'synth_mats/vary_density/q_16/r_128_c_128_p_0.05_uniq_16.txt'
p67
aS'synth_mats/vary_density/q_16/r_128_c_128_p_0.15_uniq_16.txt'
p68
aS'synth_mats/vary_density/q_16/r_128_c_128_p_0.025_uniq_16.txt'
p69
aS'synth_mats/vary_density/q_16/r_128_c_128_p_0.25_uniq_16.txt'
p70
aS'synth_mats/vary_density/q_16/r_128_c_128_p_0.075_uniq_16.txt'
p71
aS'synth_mats/vary_density/q_16/r_128_c_128_p_0.125_uniq_16.txt'
p72
asg27
(lp73
F1.0120083349749134
aF1.023201776503502
aF0.9925554136262239
aF0.996593416725574
aF0.9975987356548989
aF1.0002032037197348
aF1.0182864444232937
aF0.992799190444536
aF1.0029729297246517
aF0.9942436063921475
aF1.027666908605805
aF0.9922261958825308
asg29
(lp74
F44.1013125
aF101.96058333333333
aF154.35433333333333
aF220.30260416666667
aF287.4874375
aF353.914125
aF76.82831249999998
aF123.0098958333333
aF64.57574999999999
aF187.55956249999997
aF88.57829166666666
aF110.10000000000002
assS'vary_col/q_64'
p75
(dp76
g3
(lp77
F1.9867675523491097
aF1.8484238900846883
aF2.3581193068059774
aF3.6297206209039508
aF3.719080664124107
aF3.4414471897909316
asg5
(lp78
I64
aI64
aI64
aI64
aI64
aI64
asg7
(lp79
F56.45399999999995
aF91.88699999999994
aF177.847
aF524.491
aF1296.955
aF2788.467
asg9
(lp80
I32
aI64
aI128
aI256
aI512
aI1024
asg11
(lp81
F0.0498046875
aF0.0499267578125
aF0.04998779296875
aF0.04998779296875
aF0.04998779296875
aF0.04999542236328125
asg13
(lp82
F28.415
aF49.711
aF75.419
aF144.499
aF348.73
aF810.26
asg15
(lp83
F56.76772916666666
aF92.75481250000001
aF180.38937499999997
aF528.9213541666667
aF1315.5283333333332
aF2881.6743125
asg17
(lp84
I128
aI128
aI128
aI128
aI128
aI128
asg19
(lp85
S'synth_mats/vary_col/q_64/r_128_c_32_p_0.05_uniq_64.txt'
p86
aS'synth_mats/vary_col/q_64/r_128_c_64_p_0.05_uniq_64.txt'
p87
aS'synth_mats/vary_col/q_64/r_128_c_128_p_0.05_uniq_64.txt'
p88
aS'synth_mats/vary_col/q_64/r_128_c_256_p_0.05_uniq_64.txt'
p89
aS'synth_mats/vary_col/q_64/r_128_c_512_p_0.05_uniq_64.txt'
p90
aS'synth_mats/vary_col/q_64/r_128_c_1024_p_0.05_uniq_64.txt'
p91
asg27
(lp92
F1.9787122490075038
aF1.8539483469818268
aF2.3836002213284666
aF3.637665610251398
aF3.7602601159769686
aF3.4270860633871485
asg29
(lp93
F28.68922916666666
aF50.03095833333335
aF75.67937499999998
aF145.4013125
aF349.8503541666666
aF840.8526249999999
assS'vary_row/q_64'
p94
(dp95
g3
(lp96
F2.1150312715085136
aF1.9693092666832908
aF2.2731789977958132
aF2.619365329889758
aF2.870287067047699
aF3.232661172101508
asg5
(lp97
I64
aI64
aI64
aI64
aI64
aI64
asg7
(lp98
F70.678
aF102.666
aF178.415
aF328.602
aF643.8140000000001
aF1389.262
asg9
(lp99
I128
aI128
aI128
aI128
aI128
aI128
asg11
(lp100
F0.0498046875
aF0.0499267578125
aF0.04998779296875
aF0.04998779296875
aF0.04998779296875
aF0.04999542236328125
asg13
(lp101
F33.417
aF52.133
aF78.487
aF125.451
aF224.303
aF429.75800000000004
asg15
(lp102
F70.88677083333333
aF103.74383333333331
aF180.93458333333328
aF334.0375416666668
aF652.3386458333333
aF1408.3515625000002
asg17
(lp103
I32
aI64
aI128
aI256
aI512
aI1024
asg19
(lp104
S'synth_mats/vary_row/q_64/r_32_c_128_p_0.05_uniq_64.txt'
p105
aS'synth_mats/vary_row/q_64/r_64_c_128_p_0.05_uniq_64.txt'
p106
aS'synth_mats/vary_row/q_64/r_128_c_128_p_0.05_uniq_64.txt'
p107
aS'synth_mats/vary_row/q_64/r_256_c_128_p_0.05_uniq_64.txt'
p108
aS'synth_mats/vary_row/q_64/r_512_c_128_p_0.05_uniq_64.txt'
p109
aS'synth_mats/vary_row/q_64/r_1024_c_128_p_0.05_uniq_64.txt'
p110
asg27
(lp111
F2.0868102618199207
aF1.9771321938339976
aF2.300981741541404
aF2.6581474701530823
aF2.9039698238889073
aF3.2746805750303416
asg29
(lp112
F33.96895833333334
aF52.47187500000001
aF78.63364583333332
aF125.66554166666668
aF224.63685416666672
aF430.07295833333336
assS'vary_unique'
p113
(dp114
g3
(lp115
F1.037382062970423
aF1.0192300186054986
aF1.0387337107455672
aF1.0161854654779185
aF2.3812117177097205
aF2.3734806482567437
aF2.2939343206696714
aF2.357120207171736
aF2.267541903001721
aF2.3117278354787745
aF2.337446937139403
aF2.3348732216914274
aF0.9939504979807064
asg5
(lp116
I8
aI16
aI24
aI31
aI40
aI48
aI56
aI64
aI78
aI96
aI112
aI120
aI128
asg7
(lp117
F78.285
aF78.337
aF77.797
aF78.41700000000003
aF178.829
aF178.087
aF178.124
aF178.401
aF177.9
aF178.507
aF177.854
aF177.908
aF177.94
asg9
(lp118
I128
aI128
aI128
aI128
aI128
aI128
aI128
aI128
aI128
aI128
aI128
aI128
aI128
asg11
(lp119
F0.04998779296875
aF0.04998779296875
aF0.04998779296875
aF0.04998779296875
aF0.04998779296875
aF0.04998779296875
aF0.04998779296875
aF0.04998779296875
aF0.04998779296875
aF0.04998779296875
aF0.04998779296875
aF0.04998779296875
aF0.04998779296875
asg13
(lp120
F75.464
aF76.859
aF74.896
aF77.168
aF75.1
aF75.032
aF77.65
aF75.686
aF78.455
aF77.218
aF76.089
aF76.196
aF179.023
asg15
(lp121
F78.5357083333333
aF78.48516666666667
aF78.03164583333334
aF78.64010416666666
aF180.71364583333332
aF180.5358541666667
aF180.49514583333334
aF180.9784375
aF180.65391666666665
aF180.93539583333333
aF180.3791041666666
aF180.75575
aF180.56466666666665
asg17
(lp122
I128
aI128
aI128
aI128
aI128
aI128
aI128
aI128
aI128
aI128
aI128
aI128
aI128
asg19
(lp123
S'synth_mats/vary_unique/r_128_c_128_p_0.05_uniq_8.txt'
p124
aS'synth_mats/vary_unique/r_128_c_128_p_0.05_uniq_16.txt'
p125
aS'synth_mats/vary_unique/r_128_c_128_p_0.05_uniq_24.txt'
p126
aS'synth_mats/vary_unique/r_128_c_128_p_0.05_uniq_31.txt'
p127
aS'synth_mats/vary_unique/r_128_c_128_p_0.05_uniq_40.txt'
p128
aS'synth_mats/vary_unique/r_128_c_128_p_0.05_uniq_48.txt'
p129
aS'synth_mats/vary_unique/r_128_c_128_p_0.05_uniq_56.txt'
p130
aS'synth_mats/vary_unique/r_128_c_128_p_0.05_uniq_64.txt'
p131
aS'synth_mats/vary_unique/r_128_c_128_p_0.05_uniq_78.txt'
p132
aS'synth_mats/vary_unique/r_128_c_128_p_0.05_uniq_96.txt'
p133
aS'synth_mats/vary_unique/r_128_c_128_p_0.05_uniq_112.txt'
p134
aS'synth_mats/vary_unique/r_128_c_128_p_0.05_uniq_120.txt'
p135
aS'synth_mats/vary_unique/r_128_c_128_p_0.05_uniq_128.txt'
p136
asg27
(lp137
F1.0380423184410226
aF1.0189209459472253
aF1.0386939616288346
aF1.0171439642456606
aF2.3986898571917226
aF2.399768766278093
aF2.319620058291928
aF2.385571340733843
aF2.2975220143949704
aF2.339356651930927
aF2.361962037057243
aF2.365082290033387
aF0.9990810455147595
asg29
(lp138
F75.65752083333334
aF77.02772916666666
aF75.12477083333334
aF77.314625
aF75.3384791666667
aF75.23052083333333
aF77.81237499999999
aF75.86377083333333
aF78.62989583333332
aF77.34408333333336
aF76.36833333333334
aF76.42683333333333
aF180.73075000000003
assS'vary_density/q_64'
p139
(dp140
g3
(lp141
F1.795740367147431
aF4.087852270378281
aF1.1656669318137363
aF0.8119311193111932
aF0.6195595859426342
aF2.3237634982870694
aF0.5028606930049984
aF1.466491286835892
aF2.8109267554097532
aF0.9513834309086535
aF1.9904712908493076
aF1.6366790582403965
asg5
(lp142
I64
aI64
aI64
aI64
aI64
aI64
aI64
aI64
aI64
aI64
aI64
aI64
asg7
(lp143
F178.915
aF177.981
aF178.783
aF178.227
aF178.181
aF178.39300000000003
aF178.06799999999998
aF179.5
aF178.224
aF177.942
aF177.976
aF178.308
asg9
(lp144
I128
aI128
aI128
aI128
aI128
aI128
aI128
aI128
aI128
aI128
aI128
aI128
asg11
(lp145
F0.0999755859375
aF0.00994873046875
aF0.199951171875
aF0.29998779296875
aF0.39996337890625
aF0.04998779296875
aF0.5
aF0.14996337890625
aF0.02496337890625
aF0.25
aF0.074951171875
aF0.125
asg13
(lp146
F99.633
aF43.539
aF153.374
aF219.51
aF287.593
aF76.769
aF354.11
aF122.401
aF63.404
aF187.035
aF89.414
aF108.945
asg15
(lp147
F180.81443750000005
aF180.73441666666668
aF181.03104166666665
aF180.62229166666668
aF180.83277083333337
aF180.49387499999997
aF180.35224999999994
aF180.7795833333333
aF180.5425625
aF180.65341666666666
aF180.5045625
aF180.3185833333333
asg17
(lp148
I128
aI128
aI128
aI128
aI128
aI128
aI128
aI128
aI128
aI128
aI128
aI128
asg19
(lp149
S'synth_mats/vary_density/q_64/r_128_c_128_p_0.1_uniq_64.txt'
p150
aS'synth_mats/vary_density/q_64/r_128_c_128_p_0.01_uniq_64.txt'
p151
aS'synth_mats/vary_density/q_64/r_128_c_128_p_0.2_uniq_64.txt'
p152
aS'synth_mats/vary_density/q_64/r_128_c_128_p_0.3_uniq_64.txt'
p153
aS'synth_mats/vary_density/q_64/r_128_c_128_p_0.4_uniq_64.txt'
p154
aS'synth_mats/vary_density/q_64/r_128_c_128_p_0.05_uniq_64.txt'
p155
aS'synth_mats/vary_density/q_64/r_128_c_128_p_0.5_uniq_64.txt'
p156
aS'synth_mats/vary_density/q_64/r_128_c_128_p_0.15_uniq_64.txt'
p157
aS'synth_mats/vary_density/q_64/r_128_c_128_p_0.025_uniq_64.txt'
p158
aS'synth_mats/vary_density/q_64/r_128_c_128_p_0.25_uniq_64.txt'
p159
aS'synth_mats/vary_density/q_64/r_128_c_128_p_0.075_uniq_64.txt'
p160
aS'synth_mats/vary_density/q_64/r_128_c_128_p_0.125_uniq_64.txt'
p161
asg27
(lp162
F1.8017279712623422
aF4.10712977016838
aF1.1787093338368577
aF0.8221686935278044
aF0.6283279951829969
aF2.343962144700744
aF0.5089026280276706
aF1.4707389321531834
aF2.837704476779139
aF0.9645427779734863
aF2.0138743229146328
aF1.6438632883677662
asg29
(lp163
F100.35612500000002
aF44.00504166666667
aF153.58412499999997
aF219.69006249999998
aF287.79995833333334
aF77.00375000000003
aF354.3944166666666
aF122.91752083333331
aF63.62275000000002
aF187.29435416666664
aF89.6305
aF109.69195833333332
ass.