(dp0
S'tri'
p1
(dp2
S'speedup_best'
p3
(lp4
F1.3078970718722271
aF1.1744040150564616
aF1.1357592722183345
aF1.153047989623865
aF1.176959619952494
aF1.1135110294117647
aF1.1016042780748663
aF1.092398022249691
aF1.0334588038477626
aF1.1008
aF1.051634665282823
aF0.703212646608873
aF0.8770422772443994
aF0.5237183264584561
aF0.779474264127184
aF0.6012790212706799
aF0.5961010433827567
aF0.9659608955526289
aF0.5397940074906367
aF0.45161839863713793
asS'a_unique'
p5
(lp6
I3
aI6
aI6
aI2
aI2
aI10
aI20
aI20
aI28
aI28
aI20
aI40
aI40
aI96
aI96
aI39
aI78
aI78
aI63
aI100
asS'xsmm_upstream_best'
p7
(lp8
F1.474
aF0.936
aF1.623
aF0.889
aF0.991
aF2.423
aF2.06
aF3.535
aF2.471
aF3.44
aF4.053
aF2.758
aF5.207
aF3.555
aF4.952
aF4.325
aF4.342
aF9.535
aF6.918
aF10.604
asS'a_cols'
p9
(lp10
I3
aI6
aI6
aI6
aI3
aI6
aI9
aI9
aI12
aI6
aI10
aI12
aI12
aI20
aI10
aI15
aI15
aI15
aI21
aI28
asS'density'
p11
(lp12
F1.0
aF1.0
aF0.6666666666666666
aF0.6666666666666666
aF0.6666666666666666
aF1.0
aF1.0
aF0.6666666666666666
aF0.8888888888888888
aF0.8888888888888888
aF1.0
aF1.0
aF0.6666666666666666
aF0.96
aF0.96
aF1.0
aF1.0
aF0.6666666666666666
aF1.0
aF1.0
asS'a_size'
p13
(lp14
I18
aI18
aI36
aI18
aI18
aI54
aI54
aI108
aI72
aI72
aI120
aI120
aI240
aI200
aI200
aI225
aI225
aI450
aI378
aI588
asS'a_nonzero'
p15
(lp16
I18
aI18
aI24
aI12
aI12
aI54
aI54
aI72
aI64
aI64
aI120
aI120
aI160
aI192
aI192
aI225
aI225
aI300
aI378
aI588
asS'xsmm_local_best'
p17
(lp18
F1.127
aF0.797
aF1.429
aF0.771
aF0.842
aF2.176
aF1.87
aF3.236
aF2.391
aF3.125
aF3.854
aF3.922
aF5.937
aF6.788
aF6.353
aF7.193
aF7.284
aF9.871
aF12.816
aF23.48
asS'xsmm_upstream_avg'
p19
(lp20
F1.521416666666667
aF0.9466666666666669
aF1.6373750000000002
aF0.9014583333333331
aF1.018625
aF2.4447291666666655
aF2.0776041666666667
aF3.5580000000000003
aF2.497833333333334
aF3.461041666666667
aF4.080875000000001
aF2.790333333333334
aF5.242375
aF3.708874999999999
aF4.974708333333334
aF4.3554166666666685
aF4.385416666666667
aF9.6343125
aF6.993416666666668
aF11.18591666666667
asS'a_rows'
p21
(lp22
I6
aI3
aI6
aI3
aI6
aI9
aI6
aI12
aI6
aI12
aI12
aI10
aI20
aI10
aI20
aI15
aI15
aI30
aI18
aI21
asS'mat_file'
p23
(lp24
S'example_mats_med/tri/p1/williams-shunn/m0.txt'
p25
aS'example_mats_med/tri/p1/williams-shunn/m3.txt'
p26
aS'example_mats_med/tri/p1/williams-shunn/m6.txt'
p27
aS'example_mats_med/tri/p1/williams-shunn/m132.txt'
p28
aS'example_mats_med/tri/p1/williams-shunn/m460.txt'
p29
aS'example_mats_med/tri/p2/williams-shunn/m0.txt'
p30
aS'example_mats_med/tri/p2/williams-shunn/m3.txt'
p31
aS'example_mats_med/tri/p2/williams-shunn/m6.txt'
p32
aS'example_mats_med/tri/p2/williams-shunn/m132.txt'
p33
aS'example_mats_med/tri/p2/williams-shunn/m460.txt'
p34
aS'example_mats_med/tri/p3/williams-shunn/m0.txt'
p35
aS'example_mats_med/tri/p3/williams-shunn/m3.txt'
p36
aS'example_mats_med/tri/p3/williams-shunn/m6.txt'
p37
aS'example_mats_med/tri/p3/williams-shunn/m132.txt'
p38
aS'example_mats_med/tri/p3/williams-shunn/m460.txt'
p39
aS'example_mats_med/tri/p4/williams-shunn/m0.txt'
p40
aS'example_mats_med/tri/p4/williams-shunn/m3.txt'
p41
aS'example_mats_med/tri/p4/williams-shunn/m6.txt'
p42
aS'example_mats_med/tri/p5/williams-shunn/m0.txt'
p43
aS'example_mats_med/tri/p6/williams-shunn/m0.txt'
p44
asS'speedup_avg'
p45
(lp46
F0.9980593139264734
aF1.0034670847779519
aF0.9989704480457579
aF1.006279069767442
aF0.9923283000487098
aF1.0021948928174904
aF1.0268542067815107
aF1.020727246647063
aF1.0325269766360372
aF1.0249560415831203
aF1.0229198978552743
aF0.7068646129650251
aF0.8780339721132774
aF0.5388016742783984
aF0.7749797967668338
aF0.5996271332281662
aF0.5980402462618934
aF0.9724732250066768
aF0.5424047595579765
aF0.474681820914418
asS'xsmm_local_avg'
p47
(lp48
F1.5243749999999991
aF0.9433958333333337
aF1.6390625000000003
aF0.895833333333333
aF1.0264999999999993
aF2.439375
aF2.023270833333334
aF3.485750000000001
aF2.4191458333333338
aF3.376770833333333
aF3.9894374999999997
aF3.947479166666668
aF5.970583333333335
aF6.883562500000003
aF6.419145833333332
aF7.263541666666665
aF7.332979166666665
aF9.907020833333332
aF12.893354166666667
aF23.56508333333333
assS'quad'
p49
(dp50
g3
(lp51
F1.122754491017964
aF0.9893964110929854
aF1.0350790513833994
aF1.0642040457343886
aF1.0885929357266935
aF1.0402969247083775
aF0.9954268292682927
aF1.0266963292547275
aF1.0060897435897436
aF1.030909495219035
aF1.0887820512820512
aF1.011609907120743
aF1.0107244473626615
aF1.0104795173070815
aF1.0290917166333555
aF1.0022304832713753
aF0.9995692440232609
aF0.9970670903091776
aF0.9992933860938383
aF1.0042648709315376
aF1.0006132461161077
aF0.9984978540772531
aF1.001601182411627
aF1.0004064489906517
aF1.0010949304719152
aF0.9978632478632479
aF0.9963884430176565
aF1.00116813332295
aF0.7407463363045778
aF0.9968136630130002
aF0.9855170546832701
aF1.0005380683346785
aF1.01005814867201
aF0.9991200195551211
aF1.0070278558650652
aF0.9966965549787635
aF1.0040897936926292
aF0.9981103552532123
aF1.165729885980408
aF1.4721180788507835
aF0.9695238095238095
aF1.0081182158168385
aF1.0007560211685926
aF1.114575779550399
aF1.425461918059753
aF0.998810467882633
aF1.0012565306527346
aF1.012658227848103
aF1.3388367324916368
aF1.5042295056522752
aF1.0289118732232503
aF1.008957600690067
aF1.0088836010311322
aF1.2870441240354977
aF1.4688945625521372
asg5
(lp52
I2
aI2
aI4
aI2
aI2
aI1
aI3
aI6
aI6
aI6
aI3
aI3
aI6
aI8
aI8
aI1
aI4
aI6
aI14
aI14
aI4
aI4
aI8
aI16
aI16
aI1
aI4
aI8
aI22
aI22
aI5
aI5
aI10
aI24
aI24
aI1
aI6
aI8
aI32
aI32
aI6
aI6
aI12
aI36
aI36
aI1
aI5
aI10
aI44
aI44
aI7
aI7
aI14
aI48
aI48
asg7
(lp53
F1.875
aF1.213
aF2.095
aF1.21
aF1.88
aF2.943
aF2.612
aF4.615
aF3.139
aF4.636
aF3.397
aF2.614
aF4.618
aF3.182
aF4.634
aF4.044
aF4.641
aF8.159
aF7.071
aF8.948
aF4.895
aF4.653
aF8.132
aF7.384
aF9.143
aF5.137
aF7.449
aF12.856
aF14.709
aF15.642
aF7.281
aF7.438
aF12.854
aF20.437
aF15.762
aF6.336
aF11.048
aF18.487
aF36.295
aF37.302
aF11.198
aF11.052
aF18.532
aF36.888
aF37.263
aF7.557
aF15.14
aF25.44
aF62.035
aF58.149
aF17.011
aF15.206
aF25.439
aF62.217
aF58.108
asg9
(lp54
I4
aI8
aI8
aI8
aI4
aI9
aI12
aI12
aI18
aI9
aI9
aI12
aI12
aI18
aI9
aI16
aI16
aI16
aI32
aI16
aI16
aI16
aI16
aI32
aI16
aI25
aI20
aI20
aI50
aI25
aI25
aI20
aI20
aI50
aI25
aI36
aI24
aI24
aI72
aI36
aI36
aI24
aI24
aI72
aI36
aI49
aI28
aI28
aI98
aI49
aI49
aI28
aI28
aI98
aI49
asg11
(lp55
F0.5
aF0.5
aF0.25
aF0.5
aF0.5
aF0.1111111111111111
aF0.3333333333333333
aF0.16666666666666666
aF0.2962962962962963
aF0.2962962962962963
aF0.3333333333333333
aF0.3333333333333333
aF0.16666666666666666
aF0.2962962962962963
aF0.2962962962962963
aF0.0625
aF0.25
aF0.125
aF0.21875
aF0.21875
aF0.25
aF0.25
aF0.125
aF0.25
aF0.25
aF0.04
aF0.2
aF0.1
aF0.176
aF0.176
aF0.2
aF0.2
aF0.1
aF0.192
aF0.192
aF0.027777777777777776
aF0.16666666666666666
aF0.08333333333333333
aF0.14814814814814814
aF0.14814814814814814
aF0.16666666666666666
aF0.16666666666666666
aF0.08333333333333333
aF0.16666666666666666
aF0.16666666666666666
aF0.02040816326530612
aF0.14285714285714285
aF0.07142857142857142
aF0.1282798833819242
aF0.1282798833819242
aF0.14285714285714285
aF0.14285714285714285
aF0.07142857142857142
aF0.13994169096209913
aF0.13994169096209913
asg13
(lp56
I32
aI32
aI64
aI32
aI32
aI108
aI108
aI216
aI162
aI162
aI108
aI108
aI216
aI162
aI162
aI256
aI256
aI512
aI512
aI512
aI256
aI256
aI512
aI512
aI512
aI500
aI500
aI1000
aI1250
aI1250
aI500
aI500
aI1000
aI1250
aI1250
aI864
aI864
aI1728
aI2592
aI2592
aI864
aI864
aI1728
aI2592
aI2592
aI1372
aI1372
aI2744
aI4802
aI4802
aI1372
aI1372
aI2744
aI4802
aI4802
asg15
(lp57
I16
aI16
aI16
aI16
aI16
aI12
aI36
aI36
aI48
aI48
aI36
aI36
aI36
aI48
aI48
aI16
aI64
aI64
aI112
aI112
aI64
aI64
aI64
aI128
aI128
aI20
aI100
aI100
aI220
aI220
aI100
aI100
aI100
aI240
aI240
aI24
aI144
aI144
aI384
aI384
aI144
aI144
aI144
aI432
aI432
aI28
aI196
aI196
aI616
aI616
aI196
aI196
aI196
aI672
aI672
asg17
(lp58
F1.67
aF1.226
aF2.024
aF1.137
aF1.727
aF2.829
aF2.624
aF4.495
aF3.12
aF4.497
aF3.12
aF2.584
aF4.569
aF3.149
aF4.503
aF4.035
aF4.643
aF8.183
aF7.076
aF8.91
aF4.892
aF4.66
aF8.119
aF7.381
aF9.133
aF5.148
aF7.476
aF12.841
aF19.857
aF15.692
aF7.388
aF7.434
aF12.726
aF20.455
aF15.652
aF6.357
aF11.003
aF18.522
aF31.135
aF25.339
aF11.55
aF10.963
aF18.518
aF33.096
aF26.141
aF7.566
aF15.121
aF25.121999999999957
aF46.335
aF38.657
aF16.533
aF15.071
aF25.215
aF48.341
aF39.559
asg19
(lp59
F1.9524999999999997
aF1.2222708333333332
aF2.1126666666666662
aF1.2258125
aF1.9507291666666664
aF2.962729166666666
aF2.6403750000000006
aF4.636083333333332
aF3.1952291666666657
aF4.651208333333334
aF3.4262291666666673
aF2.635187500000001
aF4.648645833333331
aF3.2452291666666664
aF4.658395833333333
aF4.075749999999998
aF4.699291666666667
aF8.1940625
aF7.1831875000000025
aF9.004687500000005
aF4.933395833333334
aF4.689541666666666
aF8.165416666666667
aF7.448999999999998
aF9.222562499999999
aF5.1692083333333345
aF7.494041666666668
aF12.900854166666667
aF19.889562499999997
aF15.739562500000003
aF7.385604166666667
aF7.499687499999998
aF12.941145833333328
aF20.662041666666667
aF15.904187499999997
aF6.383125
aF11.113166666666665
aF18.572541666666666
aF37.45506249999999
aF37.48250000000001
aF11.497958333333331
aF11.115249999999998
aF18.639666666666674
aF37.38854166666666
aF37.39897916666667
aF7.642000000000002
aF15.304895833333335
aF25.49677083333333
aF62.7430625
aF58.630187499999984
aF17.255395833333328
aF15.312979166666672
aF25.492041666666665
aF62.72116666666667
aF58.61595833333329
asg21
(lp60
I8
aI4
aI8
aI4
aI8
aI12
aI9
aI18
aI9
aI18
aI12
aI9
aI18
aI9
aI18
aI16
aI16
aI32
aI16
aI32
aI16
aI16
aI32
aI16
aI32
aI20
aI25
aI50
aI25
aI50
aI20
aI25
aI50
aI25
aI50
aI24
aI36
aI72
aI36
aI72
aI24
aI36
aI72
aI36
aI72
aI28
aI49
aI98
aI49
aI98
aI28
aI49
aI98
aI49
aI98
asg23
(lp61
S'example_mats_med/quad/p1/gauss-legendre/m0.txt'
p62
aS'example_mats_med/quad/p1/gauss-legendre/m3.txt'
p63
aS'example_mats_med/quad/p1/gauss-legendre/m6.txt'
p64
aS'example_mats_med/quad/p1/gauss-legendre/m132.txt'
p65
aS'example_mats_med/quad/p1/gauss-legendre/m460.txt'
p66
aS'example_mats_med/quad/p2/gauss-legendre-lobatto/m0.txt'
p67
aS'example_mats_med/quad/p2/gauss-legendre-lobatto/m3.txt'
p68
aS'example_mats_med/quad/p2/gauss-legendre-lobatto/m6.txt'
p69
aS'example_mats_med/quad/p2/gauss-legendre-lobatto/m132.txt'
p70
aS'example_mats_med/quad/p2/gauss-legendre-lobatto/m460.txt'
p71
aS'example_mats_med/quad/p2/gauss-legendre/m0.txt'
p72
aS'example_mats_med/quad/p2/gauss-legendre/m3.txt'
p73
aS'example_mats_med/quad/p2/gauss-legendre/m6.txt'
p74
aS'example_mats_med/quad/p2/gauss-legendre/m132.txt'
p75
aS'example_mats_med/quad/p2/gauss-legendre/m460.txt'
p76
aS'example_mats_med/quad/p3/gauss-legendre-lobatto/m0.txt'
p77
aS'example_mats_med/quad/p3/gauss-legendre-lobatto/m3.txt'
p78
aS'example_mats_med/quad/p3/gauss-legendre-lobatto/m6.txt'
p79
aS'example_mats_med/quad/p3/gauss-legendre-lobatto/m132.txt'
p80
aS'example_mats_med/quad/p3/gauss-legendre-lobatto/m460.txt'
p81
aS'example_mats_med/quad/p3/gauss-legendre/m0.txt'
p82
aS'example_mats_med/quad/p3/gauss-legendre/m3.txt'
p83
aS'example_mats_med/quad/p3/gauss-legendre/m6.txt'
p84
aS'example_mats_med/quad/p3/gauss-legendre/m132.txt'
p85
aS'example_mats_med/quad/p3/gauss-legendre/m460.txt'
p86
aS'example_mats_med/quad/p4/gauss-legendre-lobatto/m0.txt'
p87
aS'example_mats_med/quad/p4/gauss-legendre-lobatto/m3.txt'
p88
aS'example_mats_med/quad/p4/gauss-legendre-lobatto/m6.txt'
p89
aS'example_mats_med/quad/p4/gauss-legendre-lobatto/m132.txt'
p90
aS'example_mats_med/quad/p4/gauss-legendre-lobatto/m460.txt'
p91
aS'example_mats_med/quad/p4/gauss-legendre/m0.txt'
p92
aS'example_mats_med/quad/p4/gauss-legendre/m3.txt'
p93
aS'example_mats_med/quad/p4/gauss-legendre/m6.txt'
p94
aS'example_mats_med/quad/p4/gauss-legendre/m132.txt'
p95
aS'example_mats_med/quad/p4/gauss-legendre/m460.txt'
p96
aS'example_mats_med/quad/p5/gauss-legendre-lobatto/m0.txt'
p97
aS'example_mats_med/quad/p5/gauss-legendre-lobatto/m3.txt'
p98
aS'example_mats_med/quad/p5/gauss-legendre-lobatto/m6.txt'
p99
aS'example_mats_med/quad/p5/gauss-legendre-lobatto/m132.txt'
p100
aS'example_mats_med/quad/p5/gauss-legendre-lobatto/m460.txt'
p101
aS'example_mats_med/quad/p5/gauss-legendre/m0.txt'
p102
aS'example_mats_med/quad/p5/gauss-legendre/m3.txt'
p103
aS'example_mats_med/quad/p5/gauss-legendre/m6.txt'
p104
aS'example_mats_med/quad/p5/gauss-legendre/m132.txt'
p105
aS'example_mats_med/quad/p5/gauss-legendre/m460.txt'
p106
aS'example_mats_med/quad/p6/gauss-legendre-lobatto/m0.txt'
p107
aS'example_mats_med/quad/p6/gauss-legendre-lobatto/m3.txt'
p108
aS'example_mats_med/quad/p6/gauss-legendre-lobatto/m6.txt'
p109
aS'example_mats_med/quad/p6/gauss-legendre-lobatto/m132.txt'
p110
aS'example_mats_med/quad/p6/gauss-legendre-lobatto/m460.txt'
p111
aS'example_mats_med/quad/p6/gauss-legendre/m0.txt'
p112
aS'example_mats_med/quad/p6/gauss-legendre/m3.txt'
p113
aS'example_mats_med/quad/p6/gauss-legendre/m6.txt'
p114
aS'example_mats_med/quad/p6/gauss-legendre/m132.txt'
p115
aS'example_mats_med/quad/p6/gauss-legendre/m460.txt'
p116
asg45
(lp117
F1.0004590240934272
aF0.9868795101683797
aF1.0053435644251454
aF0.9950786402841202
aF0.9960534433972305
aF0.9996977237898406
aF0.994936529992228
aF1.0021571426641382
aF1.0036515217946118
aF1.0022985822416566
aF1.0239967622427697
aF0.9982952527524568
aF1.00170141320548
aF1.0082526408450707
aF1.0024298286119044
aF1.004106017368453
aF1.0028498388351674
aF0.9961023568204956
aF1.0010626344624551
aF0.9928218674629615
aF0.9973466198885578
aF0.9984563931052224
aF0.9951150650986125
aF0.9968495770626902
aF1.0019464808305587
aF0.9906533100697513
aF0.9923610210685744
aF1.0011753978082953
aF0.990940673242498
aF0.9953781717428167
aF0.9854123755757359
aF0.9975006026817256
aF1.0081342112395575
aF0.9993994199767424
aF1.0088675562415832
aF0.9976230789268042
aF0.9982745520759643
aF0.9946556402520661
aF1.193318558255027
aF1.463152809833074
aF0.9776482675547368
aF0.9986298908404831
aF1.0030201455140642
aF1.124062446173841
aF1.4193228304372099
aF0.9910196142000328
aF1.004244528590762
aF1.0114488360253622
aF1.3450886775851827
aF1.4993175352420318
aF1.016142784759189
aF1.011545014408905
aF1.0078976631549468
aF1.2898722473717268
aF1.4689236099327905
asg47
(lp118
F1.9516041666666666
aF1.238520833333333
aF2.1014375
aF1.2318749999999994
aF1.958458333333332
aF2.963625
aF2.653812500000001
aF4.626104166666667
aF3.1836041666666657
aF4.640541666666667
aF3.3459375000000002
aF2.6396875000000004
aF4.64075
aF3.2186666666666657
aF4.647104166666666
aF4.059083333333334
aF4.6859375
aF8.226125
aF7.175562500000002
aF9.069791666666665
aF4.946520833333335
aF4.696791666666667
aF8.205500000000002
aF7.472541666666668
aF9.204645833333334
aF5.217979166666665
aF7.551729166666667
aF12.885708333333334
aF20.071395833333327
aF15.812645833333335
aF7.4949375
aF7.518479166666666
aF12.836729166666672
aF20.674458333333337
aF15.764395833333333
aF6.398333333333331
aF11.132375000000001
aF18.672333333333338
aF31.387312500000004
aF25.617625000000004
aF11.76083333333333
aF11.1305
aF18.583541666666665
aF33.261979166666656
aF26.349874999999997
aF7.711249999999999
aF15.240208333333333
aF25.20816666666666
aF46.64604166666667
aF39.104583333333345
aF16.981270833333333
aF15.138208333333331
aF25.292291666666667
aF48.625875
aF39.90402083333334
assS'tet'
p119
(dp120
g3
(lp121
F1.1653483992467044
aF1.0016492578339748
aF1.0165842304335178
aF0.9880239520958085
aF1.088276836158192
aF1.0326639892904954
aF1.0082716586852414
aF0.9927749306897421
aF0.5538300304878049
aF0.8806201550387598
aF0.5381010999483778
aF0.40595144430706975
aF0.8441796971953338
aF0.3718431520229715
asg5
(lp122
I3
aI6
aI6
aI2
aI2
aI14
aI28
aI28
aI46
aI46
aI40
aI80
aI80
aI101
asg7
(lp123
F3.094
aF1.822
aF3.494
aF1.485
aF1.541
aF7.714
aF9.264
aF11.817
aF5.813
aF7.952
aF13.551
aF14.447
aF34.012
aF31.597
asg9
(lp124
I4
aI12
aI12
aI12
aI4
aI10
aI24
aI24
aI30
aI10
aI20
aI40
aI40
aI35
asg11
(lp125
F1.0
aF1.0
aF0.5
aF0.5
aF0.5
aF1.0
aF1.0
aF0.5
aF0.84
aF0.84
aF1.0
aF1.0
aF0.5
aF1.0
asg13
(lp126
I48
aI48
aI144
aI48
aI48
aI240
aI240
aI720
aI300
aI300
aI800
aI800
aI2400
aI2100
asg15
(lp127
I48
aI48
aI72
aI24
aI24
aI240
aI240
aI360
aI252
aI252
aI800
aI800
aI1200
aI2100
asg17
(lp128
F2.655
aF1.819
aF3.437
aF1.503
aF1.416
aF7.47
aF9.188
aF11.903
aF10.496
aF9.03
aF25.183
aF35.588
aF40.29
aF84.97400000000005
asg19
(lp129
F3.198666666666666
aF1.8406250000000002
aF3.5189999999999997
aF1.5276666666666656
aF1.5526249999999993
aF7.750770833333335
aF9.380458333333333
aF11.932416666666667
aF6.027125000000001
aF8.04325
aF13.650395833333329
aF15.119437499999998
aF34.207083333333344
aF31.9224375
asg21
(lp130
I12
aI4
aI12
aI4
aI12
aI24
aI10
aI30
aI10
aI30
aI40
aI20
aI60
aI60
asg23
(lp131
S'example_mats_med/tet/p1/shunn-ham/m0.txt'
p132
aS'example_mats_med/tet/p1/shunn-ham/m3.txt'
p133
aS'example_mats_med/tet/p1/shunn-ham/m6.txt'
p134
aS'example_mats_med/tet/p1/shunn-ham/m132.txt'
p135
aS'example_mats_med/tet/p1/shunn-ham/m460.txt'
p136
aS'example_mats_med/tet/p2/shunn-ham/m0.txt'
p137
aS'example_mats_med/tet/p2/shunn-ham/m3.txt'
p138
aS'example_mats_med/tet/p2/shunn-ham/m6.txt'
p139
aS'example_mats_med/tet/p2/shunn-ham/m132.txt'
p140
aS'example_mats_med/tet/p2/shunn-ham/m460.txt'
p141
aS'example_mats_med/tet/p3/shunn-ham/m0.txt'
p142
aS'example_mats_med/tet/p3/shunn-ham/m3.txt'
p143
aS'example_mats_med/tet/p3/shunn-ham/m6.txt'
p144
aS'example_mats_med/tet/p4/shunn-ham/m0.txt'
p145
asg45
(lp146
F0.9982510321511006
aF1.0026214550777925
aF0.9974313096777623
aF1.0009555270414148
aF0.9827129237707183
aF1.0141420584491168
aF1.011040878420101
aF0.9933677893787505
aF0.5678478264709867
aF0.8804188691809154
aF0.5408931246981711
aF0.42305667722365725
aF0.8449644556470084
aF0.37491833787541956
asg47
(lp147
F3.2042708333333323
aF1.8358125
aF3.5280624999999994
aF1.5262083333333332
aF1.5799375
aF7.642687500000001
aF9.278020833333334
aF12.012083333333335
aF10.613979166666665
aF9.135708333333335
aF25.236770833333324
aF35.73856249999999
aF40.48345833333333
aF85.14504166666664
assS'hex'
p148
(dp149
g3
(lp150
F1.0446887746054265
aF0.987220447284345
aF1.0036764705882353
aF1.0264330264330264
aF1.0466725820763088
aF1.0052913836253128
aF0.9973582605161553
aF1.0113789345470863
aF0.9798163178129005
aF1.0002143347050754
aF1.0164226003438666
aF1.001861167002012
aF0.9992691684407867
aF1.0070898658772796
aF1.0036020583190395
aF1.0056124596604463
aF1.0069752997945631
aF1.0146490453512442
aF1.0367570812639852
aF1.0109059249415755
aF1.0094930655188905
aF1.0132796109097844
aF1.0167777954555317
aF1.046179925571786
aF1.0173829874447766
aF1.0152626396387219
aF1.0499519952400915
aF1.0268522012336456
aF1.101489708591575
aF1.008687684053693
aF1.0250336638511446
aF1.045946566845498
aF1.0292241598728915
aF1.057235457063712
aF1.0002894575427812
aF1.0214391297970051
aF1.083794505521695
aF1.0310402111826684
aF7.7886537508943805
aF7.18053626902209
aF1.0634270348895398
aF1.077681965540507
aF1.0252520669032301
aF7.208022490857323
aF6.9576324845147965
aF1.0330731652535234
aF1.077228252152061
aF1.0210347851505406
aF10.655601056589811
aF11.384350145514192
aF1.08682452944748
aF1.071006863890178
aF1.0167973189567245
aF9.955893287872467
aF10.663850939876506
asg5
(lp151
I2
aI2
aI4
aI2
aI2
aI1
aI3
aI6
aI6
aI6
aI3
aI3
aI6
aI8
aI8
aI1
aI4
aI6
aI14
aI14
aI4
aI4
aI8
aI16
aI16
aI1
aI4
aI8
aI22
aI22
aI5
aI5
aI10
aI24
aI24
aI1
aI6
aI8
aI32
aI32
aI6
aI6
aI12
aI36
aI36
aI1
aI5
aI10
aI44
aI44
aI7
aI7
aI14
aI48
aI48
asg7
(lp152
F5.891
aF3.399
aF6.825
aF3.456
aF5.898
aF14.059
aF19.632
aF31.553
aF27.525
aF23.333
aF17.144
aF19.917
aF31.448
aF27.557
aF23.404
aF35.835
aF42.154
aF70.095
aF75.986
aF66.183
aF42.217
aF42.501
aF70.299
aF78.996
aF67.014
aF59.801
aF77.645
aF133.346
aF187.142
aF144.203
aF83.735
aF77.399
aF133.442
aF190.83100000000002
aF145.141
aF90.523
aF131.409
aF226.535
aF2830.241
aF2006.328
aF159.379
aF130.975
aF225.943
aF2812.592
aF2021.888
aF128.786
aF201.474
aF349.296
aF7257.093
aF6794.738
aF343.68
aF200.817
aF348.914
aF7136.454
aF6785.483
asg9
(lp153
I8
aI24
aI24
aI24
aI8
aI27
aI54
aI54
aI81
aI27
aI27
aI54
aI54
aI81
aI27
aI64
aI96
aI96
aI192
aI64
aI64
aI96
aI96
aI192
aI64
aI125
aI150
aI150
aI375
aI125
aI125
aI150
aI150
aI375
aI125
aI216
aI216
aI216
aI648
aI216
aI216
aI216
aI216
aI648
aI216
aI343
aI294
aI294
aI1029
aI343
aI343
aI294
aI294
aI1029
aI343
asg11
(lp154
F0.25
aF0.25
aF0.08333333333333333
aF0.25
aF0.25
aF0.037037037037037035
aF0.1111111111111111
aF0.037037037037037035
aF0.09876543209876543
aF0.09876543209876543
aF0.1111111111111111
aF0.1111111111111111
aF0.037037037037037035
aF0.09876543209876543
aF0.09876543209876543
aF0.015625
aF0.0625
aF0.020833333333333332
aF0.0546875
aF0.0546875
aF0.0625
aF0.0625
aF0.020833333333333332
aF0.0625
aF0.0625
aF0.008
aF0.04
aF0.013333333333333334
aF0.0352
aF0.0352
aF0.04
aF0.04
aF0.013333333333333334
aF0.0384
aF0.0384
aF0.004629629629629629
aF0.027777777777777776
aF0.009259259259259259
aF0.024691358024691357
aF0.024691358024691357
aF0.027777777777777776
aF0.027777777777777776
aF0.009259259259259259
aF0.027777777777777776
aF0.027777777777777776
aF0.0029154518950437317
aF0.02040816326530612
aF0.006802721088435374
aF0.018325697625989172
aF0.018325697625989172
aF0.02040816326530612
aF0.02040816326530612
aF0.006802721088435374
aF0.019991670137442734
aF0.019991670137442734
asg13
(lp155
I192
aI192
aI576
aI192
aI192
aI1458
aI1458
aI4374
aI2187
aI2187
aI1458
aI1458
aI4374
aI2187
aI2187
aI6144
aI6144
aI18432
aI12288
aI12288
aI6144
aI6144
aI18432
aI12288
aI12288
aI18750
aI18750
aI56250
aI46875
aI46875
aI18750
aI18750
aI56250
aI46875
aI46875
aI46656
aI46656
aI139968
aI139968
aI139968
aI46656
aI46656
aI139968
aI139968
aI139968
aI100842
aI100842
aI302526
aI352947
aI352947
aI100842
aI100842
aI302526
aI352947
aI352947
asg15
(lp156
I48
aI48
aI48
aI48
aI48
aI54
aI162
aI162
aI216
aI216
aI162
aI162
aI162
aI216
aI216
aI96
aI384
aI384
aI672
aI672
aI384
aI384
aI384
aI768
aI768
aI150
aI750
aI750
aI1650
aI1650
aI750
aI750
aI750
aI1800
aI1800
aI216
aI1296
aI1296
aI3456
aI3456
aI1296
aI1296
aI1296
aI3888
aI3888
aI294
aI2058
aI2058
aI6468
aI6468
aI2058
aI2058
aI2058
aI7056
aI7056
asg17
(lp157
F5.639
aF3.443
aF6.8
aF3.367
aF5.635
aF13.985
aF19.684
aF31.198
aF28.092
aF23.328
aF16.867
aF19.88
aF31.471
aF27.363
aF23.32
aF35.635
aF41.862
aF69.083
aF73.292
aF65.469
aF41.82
aF41.944
aF69.139
aF75.509
aF65.869
aF58.902
aF73.951
aF129.859
aF169.899
aF142.961
aF81.69
aF73.999
aF129.653
aF180.5
aF145.099
aF88.623
aF121.249
aF219.715
aF363.38
aF279.412
aF149.873
aF121.534
aF220.378
aF390.203
aF290.6
aF124.66300000000001
aF187.03
aF342.1
aF681.059
aF596.849
aF316.22400000000005
aF187.503
aF343.15
aF716.807
aF636.307
asg19
(lp158
F5.9420625
aF3.489895833333333
aF6.8815625
aF3.516625
aF5.921895833333335
aF14.13466666666667
aF20.10875
aF31.83593750000001
aF27.793625000000006
aF23.471437499999997
aF17.22279166666667
aF20.14029166666667
aF31.73793749999999
aF27.843354166666675
aF23.53560416666667
aF36.033166666666666
aF42.4005625
aF70.22322916666666
aF76.15014583333333
aF66.85335416666665
aF42.99125000000001
aF42.657895833333335
aF70.40962500000002
aF79.32529166666664
aF67.70120833333333
aF59.94662500000001
aF77.7764375
aF133.54012500000002
aF188.64337500000002
aF144.37952083333337
aF83.93650000000004
aF77.60283333333334
aF133.59133333333338
aF192.10035416666665
aF145.29535416666667
aF90.71545833333336
aF131.65243750000008
aF226.7899791666667
aF2876.5484583333327
aF2024.0583125
aF159.88156249999997
aF131.17141666666666
aF226.2858541666667
aF2866.9822083333333
aF2052.8766458333334
aF129.07883333333336
aF201.87714583333332
aF349.84420833333337
aF7397.768979166667
aF6883.4478125
aF345.4726041666667
aF201.6105208333333
aF349.3377499999999
aF7288.293562499999
aF6901.380166666666
asg21
(lp159
I24
aI8
aI24
aI8
aI24
aI54
aI27
aI81
aI27
aI81
aI54
aI27
aI81
aI27
aI81
aI96
aI64
aI192
aI64
aI192
aI96
aI64
aI192
aI64
aI192
aI150
aI125
aI375
aI125
aI375
aI150
aI125
aI375
aI125
aI375
aI216
aI216
aI648
aI216
aI648
aI216
aI216
aI648
aI216
aI648
aI294
aI343
aI1029
aI343
aI1029
aI294
aI343
aI1029
aI343
aI1029
asg23
(lp160
S'example_mats_med/hex/p1/gauss-legendre/m0.txt'
p161
aS'example_mats_med/hex/p1/gauss-legendre/m3.txt'
p162
aS'example_mats_med/hex/p1/gauss-legendre/m6.txt'
p163
aS'example_mats_med/hex/p1/gauss-legendre/m132.txt'
p164
aS'example_mats_med/hex/p1/gauss-legendre/m460.txt'
p165
aS'example_mats_med/hex/p2/gauss-legendre-lobatto/m0.txt'
p166
aS'example_mats_med/hex/p2/gauss-legendre-lobatto/m3.txt'
p167
aS'example_mats_med/hex/p2/gauss-legendre-lobatto/m6.txt'
p168
aS'example_mats_med/hex/p2/gauss-legendre-lobatto/m132.txt'
p169
aS'example_mats_med/hex/p2/gauss-legendre-lobatto/m460.txt'
p170
aS'example_mats_med/hex/p2/gauss-legendre/m0.txt'
p171
aS'example_mats_med/hex/p2/gauss-legendre/m3.txt'
p172
aS'example_mats_med/hex/p2/gauss-legendre/m6.txt'
p173
aS'example_mats_med/hex/p2/gauss-legendre/m132.txt'
p174
aS'example_mats_med/hex/p2/gauss-legendre/m460.txt'
p175
aS'example_mats_med/hex/p3/gauss-legendre-lobatto/m0.txt'
p176
aS'example_mats_med/hex/p3/gauss-legendre-lobatto/m3.txt'
p177
aS'example_mats_med/hex/p3/gauss-legendre-lobatto/m6.txt'
p178
aS'example_mats_med/hex/p3/gauss-legendre-lobatto/m132.txt'
p179
aS'example_mats_med/hex/p3/gauss-legendre-lobatto/m460.txt'
p180
aS'example_mats_med/hex/p3/gauss-legendre/m0.txt'
p181
aS'example_mats_med/hex/p3/gauss-legendre/m3.txt'
p182
aS'example_mats_med/hex/p3/gauss-legendre/m6.txt'
p183
aS'example_mats_med/hex/p3/gauss-legendre/m132.txt'
p184
aS'example_mats_med/hex/p3/gauss-legendre/m460.txt'
p185
aS'example_mats_med/hex/p4/gauss-legendre-lobatto/m0.txt'
p186
aS'example_mats_med/hex/p4/gauss-legendre-lobatto/m3.txt'
p187
aS'example_mats_med/hex/p4/gauss-legendre-lobatto/m6.txt'
p188
aS'example_mats_med/hex/p4/gauss-legendre-lobatto/m132.txt'
p189
aS'example_mats_med/hex/p4/gauss-legendre-lobatto/m460.txt'
p190
aS'example_mats_med/hex/p4/gauss-legendre/m0.txt'
p191
aS'example_mats_med/hex/p4/gauss-legendre/m3.txt'
p192
aS'example_mats_med/hex/p4/gauss-legendre/m6.txt'
p193
aS'example_mats_med/hex/p4/gauss-legendre/m132.txt'
p194
aS'example_mats_med/hex/p4/gauss-legendre/m460.txt'
p195
aS'example_mats_med/hex/p5/gauss-legendre-lobatto/m0.txt'
p196
aS'example_mats_med/hex/p5/gauss-legendre-lobatto/m3.txt'
p197
aS'example_mats_med/hex/p5/gauss-legendre-lobatto/m6.txt'
p198
aS'example_mats_med/hex/p5/gauss-legendre-lobatto/m132.txt'
p199
aS'example_mats_med/hex/p5/gauss-legendre-lobatto/m460.txt'
p200
aS'example_mats_med/hex/p5/gauss-legendre/m0.txt'
p201
aS'example_mats_med/hex/p5/gauss-legendre/m3.txt'
p202
aS'example_mats_med/hex/p5/gauss-legendre/m6.txt'
p203
aS'example_mats_med/hex/p5/gauss-legendre/m132.txt'
p204
aS'example_mats_med/hex/p5/gauss-legendre/m460.txt'
p205
aS'example_mats_med/hex/p6/gauss-legendre-lobatto/m0.txt'
p206
aS'example_mats_med/hex/p6/gauss-legendre-lobatto/m3.txt'
p207
aS'example_mats_med/hex/p6/gauss-legendre-lobatto/m6.txt'
p208
aS'example_mats_med/hex/p6/gauss-legendre-lobatto/m132.txt'
p209
aS'example_mats_med/hex/p6/gauss-legendre-lobatto/m460.txt'
p210
aS'example_mats_med/hex/p6/gauss-legendre/m0.txt'
p211
aS'example_mats_med/hex/p6/gauss-legendre/m3.txt'
p212
aS'example_mats_med/hex/p6/gauss-legendre/m6.txt'
p213
aS'example_mats_med/hex/p6/gauss-legendre/m132.txt'
p214
aS'example_mats_med/hex/p6/gauss-legendre/m460.txt'
p215
asg45
(lp216
F0.9965792912598972
aF0.986240962720486
aF0.9994916531258795
aF1.0231235945521653
aF0.9991282921908337
aF1.0045246724942551
aF0.9965042545679049
aF1.0117741544630294
aF0.984534161444846
aF1.0011374249232903
aF1.0093093500059216
aF0.9986075559714988
aF1.0023713381282087
aF1.0062688466331116
aF1.0033599010947432
aF1.0063478875091496
aF1.0095036524083774
aF1.0145709034628358
aF1.0367634503575849
aF1.0125010215057322
aF1.0107997327497191
aF1.0092945167970195
aF1.015719683821123
aF1.0456872699110604
aF1.014919322599666
aF1.0149023679919529
aF1.0487447152187654
aF1.0269861757413132
aF1.1051427336986273
aF1.0088050052629447
aF1.0249376482475876
aF1.045803909941962
aF1.0289449661336598
aF1.0569709598314403
aF0.9997220516401968
aF1.0207189197450701
aF1.0839922328365075
aF1.0307967741483415
aF7.89782907738892
aF7.233529920764933
aF1.0652185711305409
aF1.0771164160557067
aF1.025778566287
aF7.333671270365947
aF7.055742454508227
aF1.0338916698733558
aF1.0768872665491034
aF1.0218195379915265
aF10.832453978387376
aF11.50574011618863
aF1.089285537162369
aF1.072875519541639
aF1.0166091759458566
aF10.142998709387408
aF10.820589606811637
asg47
(lp217
F5.962458333333331
aF3.5385833333333334
aF6.885062499999999
aF3.4371458333333353
aF5.927062500000002
aF14.071000000000005
aF20.179291666666664
aF31.465458333333327
aF28.230229166666675
aF23.444770833333337
aF17.063937499999998
aF20.168374999999994
aF31.662854166666662
aF27.66989583333334
aF23.45679166666667
aF35.80587499999999
aF42.001395833333326
aF69.21470833333332
aF73.449875
aF66.02793750000001
aF42.53191666666668
aF42.265062500000006
aF69.31993750000001
aF75.85947916666667
aF66.706
aF59.066395833333324
aF74.16145833333333
aF130.03108333333333
aF170.69593749999999
aF143.11935416666662
aF81.89425000000003
aF74.204
aF129.8333125
aF181.7461041666667
aF145.33574999999993
aF88.87408333333336
aF121.45145833333335
aF220.01424999999998
aF364.22014583333333
aF279.81612499999994
aF150.09272916666671
aF121.78016666666669
aF220.599125
aF390.9341041666669
aF290.9511875
aF124.84754166666666
aF187.46358333333328
aF342.3737708333333
aF682.9264166666666
aF598.2620625000001
aF317.15522916666663
aF187.9160416666667
aF343.6303333333332
aF718.5541250000001
aF637.8007499999999
ass.