(dp0
S'vary_row/q_16'
p1
(dp2
S'speedup_best'
p3
(lp4
F0.9926091037071799
aF1.0042049618549889
aF1.042919319738857
aF1.029654802074233
aF0.994095007353303
aF0.9917893992538355
asS'a_unique'
p5
(lp6
I16
aI16
aI16
aI16
aI16
aI16
asS'xsmm_upstream_best'
p7
(lp8
F33.844
aF50.151
aF77.637
aF128.469
aF222.388
aF426.402
asS'a_cols'
p9
(lp10
I128
aI128
aI128
aI128
aI128
aI128
asS'density'
p11
(lp12
F0.0498046875
aF0.0499267578125
aF0.04998779296875
aF0.04998779296875
aF0.04998779296875
aF0.04999542236328125
asS'xsmm_local_best'
p13
(lp14
F34.096
aF49.941
aF74.442
aF124.769
aF223.70899999999995
aF429.932
asS'xsmm_upstream_avg'
p15
(lp16
F34.92820833333333
aF50.916937499999996
aF78.33958333333332
aF128.96835416666667
aF222.73979166666666
aF426.75685416666664
asS'a_rows'
p17
(lp18
I32
aI64
aI128
aI256
aI512
aI1024
asS'mat_file'
p19
(lp20
S'synth_mats/vary_row/q_16/r_32_c_128_p_0.05_uniq_16.txt'
p21
aS'synth_mats/vary_row/q_16/r_64_c_128_p_0.05_uniq_16.txt'
p22
aS'synth_mats/vary_row/q_16/r_128_c_128_p_0.05_uniq_16.txt'
p23
aS'synth_mats/vary_row/q_16/r_256_c_128_p_0.05_uniq_16.txt'
p24
aS'synth_mats/vary_row/q_16/r_512_c_128_p_0.05_uniq_16.txt'
p25
aS'synth_mats/vary_row/q_16/r_1024_c_128_p_0.05_uniq_16.txt'
p26
asS'speedup_avg'
p27
(lp28
F0.9991174200776504
aF1.002941919958766
aF1.0453062405641533
aF1.0299769895396413
aF0.9941188831735901
aF0.9916789672452013
asS'xsmm_local_avg'
p29
(lp30
F34.959062499999995
aF50.767583333333356
aF74.94414583333334
aF125.21479166666664
aF224.0575
aF430.3377083333333
assS'vary_col/q_16'
p31
(dp32
g3
(lp33
F1.0131242428321443
aF1.012394891321593
aF1.037652489284537
aF1.062226093207803
aF1.1195775620836215
aF1.0416426033741037
asg5
(lp34
I16
aI16
aI16
aI16
aI16
aI16
asg7
(lp35
F30.106
aF51.049
aF78.68
aF153.668
aF382.48800000000006
aF867.556
asg9
(lp36
I32
aI64
aI128
aI256
aI512
aI1024
asg11
(lp37
F0.0498046875
aF0.0499267578125
aF0.04998779296875
aF0.04998779296875
aF0.04998779296875
aF0.04999542236328125
asg13
(lp38
F29.716
aF50.424
aF75.825
aF144.666
aF341.63599999999997
aF832.873
asg15
(lp39
F30.353916666666663
aF51.12670833333332
aF78.79314583333333
aF154.4731041666667
aF383.27512500000006
aF877.4451041666666
asg17
(lp40
I128
aI128
aI128
aI128
aI128
aI128
asg19
(lp41
S'synth_mats/vary_col/q_16/r_128_c_32_p_0.05_uniq_16.txt'
p42
aS'synth_mats/vary_col/q_16/r_128_c_64_p_0.05_uniq_16.txt'
p43
aS'synth_mats/vary_col/q_16/r_128_c_128_p_0.05_uniq_16.txt'
p44
aS'synth_mats/vary_col/q_16/r_128_c_256_p_0.05_uniq_16.txt'
p45
aS'synth_mats/vary_col/q_16/r_128_c_512_p_0.05_uniq_16.txt'
p46
aS'synth_mats/vary_col/q_16/r_128_c_1024_p_0.05_uniq_16.txt'
p47
asg27
(lp48
F1.0120361752080353
aF1.0112602997581952
aF1.0373928957201075
aF1.0609109855741923
aF1.1204061699419776
aF1.0504730504755193
asg29
(lp49
F29.99291666666666
aF50.557416666666676
aF75.95304166666668
aF145.60420833333333
aF342.08587499999993
aF835.2856875000002
assS'vary_density/q_16'
p50
(dp51
g3
(lp52
F1.0055584310371983
aF1.0282862060486846
aF0.9927073719240318
aF0.9964394015280522
aF0.9981434369449069
aF1.001395604271172
aF1.0348765228844254
aF0.9923706387656231
aF1.0242392742392743
aF0.9933882002339229
aF1.0468839271430859
aF0.9901056728688092
asg5
(lp53
I16
aI16
aI16
aI16
aI16
aI16
aI16
aI16
aI16
aI16
aI16
aI16
asg7
(lp54
F44.684
aF104.551
aF152.732
aF218.844
aF286.019
aF353.745
aF78.573
aF121.878
aF65.031
aF186.003
aF91.617
aF108.874
asg9
(lp55
I128
aI128
aI128
aI128
aI128
aI128
aI128
aI128
aI128
aI128
aI128
aI128
asg11
(lp56
F0.00994873046875
aF0.0999755859375
aF0.199951171875
aF0.29998779296875
aF0.39996337890625
aF0.5
aF0.04998779296875
aF0.14996337890625
aF0.02496337890625
aF0.25
aF0.074951171875
aF0.125
asg13
(lp57
F44.43700000000001
aF101.675
aF153.854
aF219.626
aF286.551
aF353.25199999999995
aF75.925
aF122.815
aF63.492
aF187.241
aF87.514
aF109.96199999999999
asg15
(lp58
F44.80745833333332
aF104.97720833333331
aF152.9173125
aF218.96460416666665
aF286.21074999999996
aF353.97491666666673
aF78.73839583333334
aF122.19270833333331
aF65.13935416666668
aF186.20641666666668
aF91.71852083333333
aF109.47910416666672
asg17
(lp59
I128
aI128
aI128
aI128
aI128
aI128
aI128
aI128
aI128
aI128
aI128
aI128
asg19
(lp60
S'synth_mats/vary_density/q_16/r_128_c_128_p_0.01_uniq_16.txt'
p61
aS'synth_mats/vary_density/q_16/r_128_c_128_p_0.1_uniq_16.txt'
p62
aS'synth_mats/vary_density/q_16/r_128_c_128_p_0.2_uniq_16.txt'
p63
aS'synth_mats/vary_density/q_16/r_128_c_128_p_0.3_uniq_16.txt'
p64
aS'synth_mats/vary_density/q_16/r_128_c_128_p_0.4_uniq_16.txt'
p65
aS'synth_mats/vary_density/q_16/r_128_c_128_p_0.5_uniq_16.txt'
p66
aS'synth_mats/vary_density/q_16/r_128_c_128_p_0.05_uniq_16.txt'
p67
aS'synth_mats/vary_density/q_16/r_128_c_128_p_0.15_uniq_16.txt'
p68
aS'synth_mats/vary_density/q_16/r_128_c_128_p_0.025_uniq_16.txt'
p69
aS'synth_mats/vary_density/q_16/r_128_c_128_p_0.25_uniq_16.txt'
p70
aS'synth_mats/vary_density/q_16/r_128_c_128_p_0.075_uniq_16.txt'
p71
aS'synth_mats/vary_density/q_16/r_128_c_128_p_0.125_uniq_16.txt'
p72
asg27
(lp73
F1.0038281379809906
aF1.027625260352564
aF0.9927170849405187
aF0.9964229346289429
aF0.9983157832625177
aF1.0013859026676104
aF1.0351206860191555
aF0.9921096392579235
aF1.0231131387076278
aF0.9933066137253318
aF1.045976762983093
aF0.9910972820532459
asg29
(lp74
F44.636583333333334
aF102.15514583333334
aF154.03916666666663
aF219.7506666666667
aF286.6936041666666
aF353.48502083333346
aF76.066875
aF123.16452083333331
aF63.66779166666666
aF187.46116666666663
aF87.68695833333332
aF110.46252083333333
assS'vary_col/q_64'
p75
(dp76
g3
(lp77
F1.9837173471531622
aF1.8226080694525015
aF2.297239668139877
aF3.637708506302362
aF3.729258626618636
aF3.491069361674793
asg5
(lp78
I64
aI64
aI64
aI64
aI64
aI64
asg7
(lp79
F56.651
aF91.114
aF177.765
aF530.156
aF1323.0439999999999
aF2880.415
asg9
(lp80
I32
aI64
aI128
aI256
aI512
aI1024
asg11
(lp81
F0.0498046875
aF0.0499267578125
aF0.04998779296875
aF0.04998779296875
aF0.04998779296875
aF0.04999542236328125
asg13
(lp82
F28.558
aF49.991
aF77.382
aF145.739
aF354.774
aF825.081
asg15
(lp83
F57.04125
aF92.97779166666668
aF180.49366666666666
aF535.9691458333333
aF1338.2816249999998
aF2921.387250000001
asg17
(lp84
I128
aI128
aI128
aI128
aI128
aI128
asg19
(lp85
S'synth_mats/vary_col/q_64/r_128_c_32_p_0.05_uniq_64.txt'
p86
aS'synth_mats/vary_col/q_64/r_128_c_64_p_0.05_uniq_64.txt'
p87
aS'synth_mats/vary_col/q_64/r_128_c_128_p_0.05_uniq_64.txt'
p88
aS'synth_mats/vary_col/q_64/r_128_c_256_p_0.05_uniq_64.txt'
p89
aS'synth_mats/vary_col/q_64/r_128_c_512_p_0.05_uniq_64.txt'
p90
aS'synth_mats/vary_col/q_64/r_128_c_1024_p_0.05_uniq_64.txt'
p91
asg27
(lp92
F1.9799773508606238
aF1.8555231629924298
aF2.329200989353694
aF3.660834626704428
aF3.7492266921169466
aF3.5158641339560046
asg29
(lp93
F28.80904166666667
aF50.10866666666667
aF77.49166666666666
aF146.40627083333337
aF356.9487083333333
aF830.9158541666666
assS'vary_row/q_64'
p94
(dp95
g3
(lp96
F2.1518886191105513
aF2.0602336825141014
aF2.256976995287273
aF2.63427888969934
aF2.8826768980641932
aF3.272579192680276
asg5
(lp97
I64
aI64
aI64
aI64
aI64
aI64
asg7
(lp98
F70.016
aF102.27
aF177.676
aF328.65
aF645.391
aF1406.368
asg9
(lp99
I128
aI128
aI128
aI128
aI128
aI128
asg11
(lp100
F0.0498046875
aF0.0499267578125
aF0.04998779296875
aF0.04998779296875
aF0.04998779296875
aF0.04999542236328125
asg13
(lp101
F32.537
aF49.64
aF78.723
aF124.759
aF223.886
aF429.743
asg15
(lp102
F70.28747916666669
aF103.24779166666666
aF180.15499999999997
aF333.2324166666667
aF652.1720208333331
aF1417.8364166666668
asg17
(lp103
I32
aI64
aI128
aI256
aI512
aI1024
asg19
(lp104
S'synth_mats/vary_row/q_64/r_32_c_128_p_0.05_uniq_64.txt'
p105
aS'synth_mats/vary_row/q_64/r_64_c_128_p_0.05_uniq_64.txt'
p106
aS'synth_mats/vary_row/q_64/r_128_c_128_p_0.05_uniq_64.txt'
p107
aS'synth_mats/vary_row/q_64/r_256_c_128_p_0.05_uniq_64.txt'
p108
aS'synth_mats/vary_row/q_64/r_512_c_128_p_0.05_uniq_64.txt'
p109
aS'synth_mats/vary_row/q_64/r_1024_c_128_p_0.05_uniq_64.txt'
p110
asg27
(lp111
F2.0851018200920866
aF2.0442012286093645
aF2.26977652487519
aF2.6670074800534977
aF2.9093181058212085
aF3.2972312106654167
asg29
(lp112
F33.709375
aF50.507645833333335
aF79.37125000000002
aF124.94618749999997
aF224.16662499999998
aF430.0081875000001
assS'vary_unique'
p113
(dp114
g3
(lp115
F0.9965445307600753
aF0.9958862983072501
aF1.035629992132599
aF0.9960017883374848
aF2.2693613396228813
aF2.3073576868465215
aF2.379410071364495
aF2.3054863813229574
aF2.25904353157572
aF2.275729420936266
aF2.278455441467871
aF2.308345872464069
aF0.9973952924401731
asg5
(lp116
I8
aI16
aI24
aI31
aI40
aI48
aI56
aI64
aI78
aI96
aI112
aI120
aI128
asg7
(lp117
F77.867
aF77.953
aF77.665
aF77.972
aF178.483
aF178.751
aF177.711
aF177.753
aF176.856
aF178.069
aF177.077
aF177.955
aF177.675
asg9
(lp118
I128
aI128
aI128
aI128
aI128
aI128
aI128
aI128
aI128
aI128
aI128
aI128
aI128
asg11
(lp119
F0.04998779296875
aF0.04998779296875
aF0.04998779296875
aF0.04998779296875
aF0.04998779296875
aF0.04998779296875
aF0.04998779296875
aF0.04998779296875
aF0.04998779296875
aF0.04998779296875
aF0.04998779296875
aF0.04998779296875
aF0.04998779296875
asg13
(lp120
F78.137
aF78.275
aF74.993
aF78.285
aF78.649
aF77.47
aF74.687
aF77.1
aF78.28800000000001
aF78.247
aF77.718
aF77.092
aF178.139
asg15
(lp121
F78.23047916666665
aF78.25704166666665
aF78.08795833333333
aF78.38943750000003
aF180.20764583333332
aF180.39708333333328
aF179.73202083333334
aF180.16910416666659
aF179.82770833333336
aF180.24214583333335
aF179.7926458333333
aF180.2483333333333
aF180.16495833333332
asg17
(lp122
I128
aI128
aI128
aI128
aI128
aI128
aI128
aI128
aI128
aI128
aI128
aI128
aI128
asg19
(lp123
S'synth_mats/vary_unique/r_128_c_128_p_0.05_uniq_8.txt'
p124
aS'synth_mats/vary_unique/r_128_c_128_p_0.05_uniq_16.txt'
p125
aS'synth_mats/vary_unique/r_128_c_128_p_0.05_uniq_24.txt'
p126
aS'synth_mats/vary_unique/r_128_c_128_p_0.05_uniq_31.txt'
p127
aS'synth_mats/vary_unique/r_128_c_128_p_0.05_uniq_40.txt'
p128
aS'synth_mats/vary_unique/r_128_c_128_p_0.05_uniq_48.txt'
p129
aS'synth_mats/vary_unique/r_128_c_128_p_0.05_uniq_56.txt'
p130
aS'synth_mats/vary_unique/r_128_c_128_p_0.05_uniq_64.txt'
p131
aS'synth_mats/vary_unique/r_128_c_128_p_0.05_uniq_78.txt'
p132
aS'synth_mats/vary_unique/r_128_c_128_p_0.05_uniq_96.txt'
p133
aS'synth_mats/vary_unique/r_128_c_128_p_0.05_uniq_112.txt'
p134
aS'synth_mats/vary_unique/r_128_c_128_p_0.05_uniq_120.txt'
p135
aS'synth_mats/vary_unique/r_128_c_128_p_0.05_uniq_128.txt'
p136
asg27
(lp137
F0.996660248866268
aF0.9958570665422397
aF1.0351859523533342
aF0.9960857492523456
aF2.2773217120153797
aF2.3175326998948425
aF2.3876536437778078
aF2.3274717614858145
aF2.28667517043972
aF2.28867532514256
aF2.300263209449418
aF2.327975871916015
aF1.0042692298536025
asg29
(lp138
F78.492625
aF78.58260416666667
aF75.43375
aF78.69747916666667
aF79.13139583333331
aF77.84014583333334
aF75.27558333333333
aF77.40979166666666
aF78.64156249999999
aF78.75391666666664
aF78.16177083333336
aF77.42706250000002
aF179.3990625
assS'vary_density/q_64'
p139
(dp140
g3
(lp141
F1.7901321056845476
aF3.9919403858709117
aF1.158992322394213
aF0.815714396571006
aF0.6216956285447528
aF2.35591918870972
aF0.5037473066675727
aF1.4470882650233137
aF2.826284732715156
aF0.9514807171763193
aF2.071568230462197
aF1.637627526423567
asg5
(lp142
I64
aI64
aI64
aI64
aI64
aI64
aI64
aI64
aI64
aI64
aI64
aI64
asg7
(lp143
F178.87
aF177.318
aF177.67700000000002
aF178.701
aF178.454
aF177.952
aF177.91700000000003
aF177.52300000000002
aF177.697
aF177.513
aF179.056
aF178.336
asg9
(lp144
I128
aI128
aI128
aI128
aI128
aI128
aI128
aI128
aI128
aI128
aI128
aI128
asg11
(lp145
F0.0999755859375
aF0.00994873046875
aF0.199951171875
aF0.29998779296875
aF0.39996337890625
aF0.04998779296875
aF0.5
aF0.14996337890625
aF0.02496337890625
aF0.25
aF0.074951171875
aF0.125
asg13
(lp146
F99.92
aF44.419
aF153.303
aF219.073
aF287.044
aF75.534
aF353.187
aF122.676
aF62.873
aF186.565
aF86.435
aF108.899
asg15
(lp147
F180.9116666666666
aF180.50012500000003
aF180.60220833333335
aF180.9461458333334
aF180.81181249999997
aF181.09943750000002
aF180.34702083333335
aF180.48429166666668
aF180.24929166666664
aF180.40322916666662
aF180.79374999999993
aF180.26537500000003
asg17
(lp148
I128
aI128
aI128
aI128
aI128
aI128
aI128
aI128
aI128
aI128
aI128
aI128
asg19
(lp149
S'synth_mats/vary_density/q_64/r_128_c_128_p_0.1_uniq_64.txt'
p150
aS'synth_mats/vary_density/q_64/r_128_c_128_p_0.01_uniq_64.txt'
p151
aS'synth_mats/vary_density/q_64/r_128_c_128_p_0.2_uniq_64.txt'
p152
aS'synth_mats/vary_density/q_64/r_128_c_128_p_0.3_uniq_64.txt'
p153
aS'synth_mats/vary_density/q_64/r_128_c_128_p_0.4_uniq_64.txt'
p154
aS'synth_mats/vary_density/q_64/r_128_c_128_p_0.05_uniq_64.txt'
p155
aS'synth_mats/vary_density/q_64/r_128_c_128_p_0.5_uniq_64.txt'
p156
aS'synth_mats/vary_density/q_64/r_128_c_128_p_0.15_uniq_64.txt'
p157
aS'synth_mats/vary_density/q_64/r_128_c_128_p_0.025_uniq_64.txt'
p158
aS'synth_mats/vary_density/q_64/r_128_c_128_p_0.25_uniq_64.txt'
p159
aS'synth_mats/vary_density/q_64/r_128_c_128_p_0.075_uniq_64.txt'
p160
aS'synth_mats/vary_density/q_64/r_128_c_128_p_0.125_uniq_64.txt'
p161
asg27
(lp162
F1.7992507749175348
aF4.055994595756096
aF1.1766606310520158
aF0.8253206932742667
aF0.6296938909883197
aF2.391433695473654
aF0.510385280983035
aF1.4672083254722015
aF2.8606051268249555
aF0.9650852726379503
aF2.0873512015721087
aF1.6432203003577857
asg29
(lp163
F100.54833333333333
aF44.5020625
aF153.48708333333335
aF219.24343750000003
aF287.14239583333335
aF75.72839583333335
aF353.3546666666667
aF123.01204166666668
aF63.010895833333365
aF186.92983333333333
aF86.61395833333336
aF109.70250000000003
ass.